ARM GAS  /cygdrive/c/DOCUME~1/ADMINI~1/USTAWI~1/Temp/ccAFVufk.s 			page 1


   1              		.file	"Non-vectored_IRQ.c"
   8 0000 57000000 		.text
   8      02002600 
   8      00000201 
   8      FB0E0A00 
   8      01010101 
   9              	.Ltext0:
  10              		.align	2
  11              		.global	EINT2Init
  12              		.type	EINT2Init, %function
  13              	EINT2Init:
  14              	.LFB2:
  15              		.file 1 "Non-vectored_IRQ.c"
   1:Non-vectored_IRQ.c **** ////////////////////////////////////////////////////////
   2:Non-vectored_IRQ.c **** // Function:	Non-vectored_IRQ interrupt example - EINT2 interrupt
   3:Non-vectored_IRQ.c **** // Target:		LPC2138
   4:Non-vectored_IRQ.c **** // Board:		ZL6ARM
   5:Non-vectored_IRQ.c **** // Quartz:		12MHz
   6:Non-vectored_IRQ.c **** // Compiler:	ARM-GCC
   7:Non-vectored_IRQ.c **** // Author:		Arkadiusz Antoniak @ 2006, Poland
   8:Non-vectored_IRQ.c **** // Copyright:	(c) Arkadiusz Antoniak, 2006
   9:Non-vectored_IRQ.c **** ////////////////////////////////////////////////////////
  10:Non-vectored_IRQ.c **** #include <LPC213x.H>	    
  11:Non-vectored_IRQ.c **** #include "lcd.h"
  12:Non-vectored_IRQ.c **** 
  13:Non-vectored_IRQ.c **** //EINT2 interrupt handler's header
  14:Non-vectored_IRQ.c **** void EINT2ISR(void) __attribute__ ((interrupt));
  15:Non-vectored_IRQ.c **** 
  16:Non-vectored_IRQ.c **** //*******************************
  17:Non-vectored_IRQ.c **** // EINT2 Init
  18:Non-vectored_IRQ.c **** //*******************************
  19:Non-vectored_IRQ.c **** void EINT2Init(void)
  20:Non-vectored_IRQ.c **** {
  16              		.loc 1 20 0
  17              		@ Function supports interworking.
  18              		@ args = 0, pretend = 0, frame = 0
  19              		@ frame_needed = 0, uses_anonymous_args = 0
  20              		@ link register save eliminated.
  21              	.LVL0:
  22              		@ lr needed for prologue
  21:Non-vectored_IRQ.c **** 	//P0.7=EINT2
  22:Non-vectored_IRQ.c **** 	PINSEL0|=(3<<14);
  23              		.loc 1 22 0
  24 0000 0E22A0E3 		mov	r2, #-536870912
  25 0004 0B1982E2 		add	r1, r2, #180224
  26 0008 003091E5 		ldr	r3, [r1, #0]
  27 000c 033983E3 		orr	r3, r3, #49152
  28 0010 003081E5 		str	r3, [r1, #0]
  23:Non-vectored_IRQ.c **** 	
  24:Non-vectored_IRQ.c **** 	//EXT4 edge trigered
  25:Non-vectored_IRQ.c **** 	EXTMODE=(1<<2);
ARM GAS  /cygdrive/c/DOCUME~1/ADMINI~1/USTAWI~1/Temp/ccAFVufk.s 			page 2


  29              		.loc 1 25 0
  30 0014 7F2982E2 		add	r2, r2, #2080768
  31 0018 0430A0E3 		mov	r3, #4
  32 001c 4831C2E5 		strb	r3, [r2, #328]
  26:Non-vectored_IRQ.c **** 	
  27:Non-vectored_IRQ.c **** 	//Falling edge
  28:Non-vectored_IRQ.c **** 	EXTPOLAR=0;
  33              		.loc 1 28 0
  34 0020 043043E2 		sub	r3, r3, #4
  35 0024 4C31C2E5 		strb	r3, [r2, #332]
  29:Non-vectored_IRQ.c **** 
  30:Non-vectored_IRQ.c **** 	//VIC configured for Non-vectored IRQ handling
  31:Non-vectored_IRQ.c **** 	VICDefVectAddr = (unsigned int)EINT2ISR;
  36              		.loc 1 31 0
  37 0028 18209FE5 		ldr	r2, .L3
  38 002c 3F3DE0E3 		mvn	r3, #4032
  39 0030 0B2003E5 		str	r2, [r3, #-11]
  32:Non-vectored_IRQ.c **** 	VICIntEnable |= 0x00010000;
  40              		.loc 1 32 0
  41 0034 FE2EE0E3 		mvn	r2, #4064
  42 0038 0F3012E5 		ldr	r3, [r2, #-15]
  43 003c 013883E3 		orr	r3, r3, #65536
  44 0040 0F3002E5 		str	r3, [r2, #-15]
  33:Non-vectored_IRQ.c **** }
  45              		.loc 1 33 0
  46 0044 1EFF2FE1 		bx	lr
  47              	.L4:
  48              		.align	2
  49              	.L3:
  50 0048 00000000 		.word	EINT2ISR
  51              	.LFE2:
  52              		.size	EINT2Init, .-EINT2Init
  53              		.align	2
  54              		.global	delay
  55              		.type	delay, %function
  56              	delay:
  57              	.LFB3:
  34:Non-vectored_IRQ.c **** 
  35:Non-vectored_IRQ.c **** //*******************************
  36:Non-vectored_IRQ.c **** // Delay function
  37:Non-vectored_IRQ.c **** //*******************************
  38:Non-vectored_IRQ.c **** void delay(unsigned int del_time) 
  39:Non-vectored_IRQ.c **** { 
  58              		.loc 1 39 0
  59              		@ Function supports interworking.
  60              		@ args = 0, pretend = 0, frame = 0
  61              		@ frame_needed = 0, uses_anonymous_args = 0
  62              		@ link register save eliminated.
  63              	.LVL1:
  64              		@ lr needed for prologue
  40:Non-vectored_IRQ.c **** 	unsigned int i;
  41:Non-vectored_IRQ.c **** 	for(i=0;i<del_time;i++);	   
  65              		.loc 1 41 0
  66 004c 000050E3 		cmp	r0, #0
  67 0050 1EFF2F01 		bxeq	lr
  68 0054 0030A0E3 		mov	r3, #0
  69              	.LVL2:
ARM GAS  /cygdrive/c/DOCUME~1/ADMINI~1/USTAWI~1/Temp/ccAFVufk.s 			page 3


  70              	.L8:
  71 0058 013083E2 		add	r3, r3, #1
  72 005c 030050E1 		cmp	r0, r3
  73 0060 1400001A 		bne	.L8
  74 0064 1EFF2FE1 		bx	lr
  75              	.LFE3:
  76              		.size	delay, .-delay
  77              		.section	.rodata.str1.4,"aMS",%progbits,1
  78              		.align	2
  79              	.LC0:
  80 0000 4E6F6E2D 		.ascii	"Non-vectored IRQ\000"
  80      76656374 
  80      6F726564 
  80      20495251 
  80      00
  81 0011 000000   		.align	2
  82              	.LC1:
  83 0014 50726573 		.ascii	"Press S4\000"
  83      73205334 
  83      00
  84              		.text
  85              		.align	2
  86              		.global	main
  87              		.type	main, %function
  88              	main:
  89              	.LFB4:
  42:Non-vectored_IRQ.c **** }
  43:Non-vectored_IRQ.c **** 
  44:Non-vectored_IRQ.c **** //*******************************
  45:Non-vectored_IRQ.c **** // MAIN
  46:Non-vectored_IRQ.c **** //*******************************
  47:Non-vectored_IRQ.c **** int main (void)
  48:Non-vectored_IRQ.c **** {
  90              		.loc 1 48 0
  91              		@ Function supports interworking.
  92              		@ args = 0, pretend = 0, frame = 0
  93              		@ frame_needed = 1, uses_anonymous_args = 0
  94 0068 0DC0A0E1 		mov	ip, sp
  95              	.LCFI0:
  96 006c 00D82DE9 		stmfd	sp!, {fp, ip, lr, pc}
  97              	.LCFI1:
  98 0070 04B04CE2 		sub	fp, ip, #4
  99              	.LCFI2:
  49:Non-vectored_IRQ.c **** 	//Peripherials' frequency = fclk/4 = 15MHz
  50:Non-vectored_IRQ.c **** 	VPBDIV&=0xFFFFFFFC;
 100              		.loc 1 50 0
 101 0074 0E12A0E3 		mov	r1, #-536870912
 102 0078 7F2981E2 		add	r2, r1, #2080768
 103 007c 0031D2E5 		ldrb	r3, [r2, #256]	@ zero_extendqisi2
 104 0080 FC3003E2 		and	r3, r3, #252
 105 0084 0031C2E5 		strb	r3, [r2, #256]
  51:Non-vectored_IRQ.c **** 	VPBDIV|=0x00;
 106              		.loc 1 51 0
 107 0088 0031D2E5 		ldrb	r3, [r2, #256]	@ zero_extendqisi2
 108 008c FF3003E2 		and	r3, r3, #255
 109 0090 0031C2E5 		strb	r3, [r2, #256]
  52:Non-vectored_IRQ.c **** 
ARM GAS  /cygdrive/c/DOCUME~1/ADMINI~1/USTAWI~1/Temp/ccAFVufk.s 			page 4


  53:Non-vectored_IRQ.c **** 	//Port direction configuration
  54:Non-vectored_IRQ.c **** 	IODIR0 = 0xFF000000;
 110              		.loc 1 54 0
 111 0094 FF24A0E3 		mov	r2, #-16777216
 112 0098 8E32A0E3 		mov	r3, #-536870904
 113 009c 0A3983E2 		add	r3, r3, #163840
 114 00a0 002083E5 		str	r2, [r3, #0]
  55:Non-vectored_IRQ.c **** 	IODIR1 = 0x00FF0000;
 115              		.loc 1 55 0
 116 00a4 0A1981E2 		add	r1, r1, #163840
 117 00a8 FF38A0E3 		mov	r3, #16711680
 118 00ac 183081E5 		str	r3, [r1, #24]
  56:Non-vectored_IRQ.c **** 
  57:Non-vectored_IRQ.c **** 	EINT2Init();
 119              		.loc 1 57 0
 120 00b0 FEFFFFEB 		bl	EINT2Init
  58:Non-vectored_IRQ.c **** 	LCDInit();
 121              		.loc 1 58 0
 122 00b4 FEFFFFEB 		bl	LCDInit
  59:Non-vectored_IRQ.c **** 
  60:Non-vectored_IRQ.c **** 	LCDClear();
 123              		.loc 1 60 0
 124 00b8 FEFFFFEB 		bl	LCDClear
  61:Non-vectored_IRQ.c **** 
  62:Non-vectored_IRQ.c **** 	LCDText("Non-vectored IRQ");
 125              		.loc 1 62 0
 126 00bc 18009FE5 		ldr	r0, .L14
 127 00c0 FEFFFFEB 		bl	LCDText
  63:Non-vectored_IRQ.c **** 	LCDGotoXY(0,1);
 128              		.loc 1 63 0
 129 00c4 0000A0E3 		mov	r0, #0
 130 00c8 0110A0E3 		mov	r1, #1
 131 00cc FEFFFFEB 		bl	LCDGotoXY
  64:Non-vectored_IRQ.c **** 	LCDText("Press S4");
 132              		.loc 1 64 0
 133 00d0 08009FE5 		ldr	r0, .L14+4
 134 00d4 FEFFFFEB 		bl	LCDText
 135              	.L12:
 136 00d8 340000EA 		b	.L12
 137              	.L15:
 138              		.align	2
 139              	.L14:
 140 00dc 00000000 		.word	.LC0
 141 00e0 14000000 		.word	.LC1
 142              	.LFE4:
 143              		.size	main, .-main
 144              		.section	.rodata.str1.4
 145 001d 000000   		.align	2
 146              	.LC2:
 147 0020 4E2D7665 		.ascii	"N-vect. IRQ!!!\000"
 147      63742E20 
 147      49525121 
 147      212100
 148 002f 00       		.text
 149              		.align	2
 150              		.global	EINT2ISR
 151              		.type	EINT2ISR, %function
ARM GAS  /cygdrive/c/DOCUME~1/ADMINI~1/USTAWI~1/Temp/ccAFVufk.s 			page 5


 152              	EINT2ISR:
 153              	.LFB5:
  65:Non-vectored_IRQ.c **** 
  66:Non-vectored_IRQ.c **** 	while(1);
  67:Non-vectored_IRQ.c **** }
  68:Non-vectored_IRQ.c **** 
  69:Non-vectored_IRQ.c **** //*******************************
  70:Non-vectored_IRQ.c **** // EINT2 interrupt routine
  71:Non-vectored_IRQ.c **** //*******************************
  72:Non-vectored_IRQ.c **** void EINT2ISR(void)
  73:Non-vectored_IRQ.c **** {
 154              		.loc 1 73 0
 155              		@ Interrupt Service Routine.
 156              		@ args = 0, pretend = 0, frame = 0
 157              		@ frame_needed = 1, uses_anonymous_args = 0
 158 00e4 04C02DE5 		str	ip, [sp, #-4]!
 159 00e8 0DC0A0E1 		mov	ip, sp
 160              	.LCFI3:
 161 00ec 0FD82DE9 		stmfd	sp!, {r0, r1, r2, r3, fp, ip, lr, pc}
 162              	.LCFI4:
 163 00f0 04B04CE2 		sub	fp, ip, #4
 164              	.LCFI5:
  74:Non-vectored_IRQ.c **** 	if(VICIRQStatus & 0x00010000)
 165              		.loc 1 74 0
 166 00f4 0231A0E3 		mov	r3, #-2147483648
 167 00f8 C339A0E1 		mov	r3, r3, asr #19
 168 00fc 003093E5 		ldr	r3, [r3, #0]
 169 0100 010813E3 		tst	r3, #65536
 170 0104 4A00000A 		beq	.L17
  75:Non-vectored_IRQ.c **** 	{
  76:Non-vectored_IRQ.c **** 		LCDClear();
 171              		.loc 1 76 0
 172 0108 FEFFFFEB 		bl	LCDClear
  77:Non-vectored_IRQ.c **** 		LCDText("N-vect. IRQ!!!");
 173              		.loc 1 77 0
 174 010c 38009FE5 		ldr	r0, .L20
 175 0110 FEFFFFEB 		bl	LCDText
  78:Non-vectored_IRQ.c **** 		delay(0x800000);
 176              		.loc 1 78 0
 177 0114 0205A0E3 		mov	r0, #8388608
 178 0118 FEFFFFEB 		bl	delay
  79:Non-vectored_IRQ.c **** 		LCDClear();
 179              		.loc 1 79 0
 180 011c FEFFFFEB 		bl	LCDClear
  80:Non-vectored_IRQ.c **** 
  81:Non-vectored_IRQ.c **** 		//Clear EINT2 interrupt flag
  82:Non-vectored_IRQ.c **** 		EXTINT=(1<<2);
 181              		.loc 1 82 0
 182 0120 0420A0E3 		mov	r2, #4
 183 0124 0E32A0E3 		mov	r3, #-536870912
 184 0128 7F3983E2 		add	r3, r3, #2080768
 185 012c 4021C3E5 		strb	r2, [r3, #320]
 186              	.L17:
  83:Non-vectored_IRQ.c **** 	}
  84:Non-vectored_IRQ.c **** 
  85:Non-vectored_IRQ.c **** 	//Ack interrupt
  86:Non-vectored_IRQ.c **** 	VICVectAddr=0x00000000;
ARM GAS  /cygdrive/c/DOCUME~1/ADMINI~1/USTAWI~1/Temp/ccAFVufk.s 			page 6


 187              		.loc 1 86 0
 188 0130 0020A0E3 		mov	r2, #0
 189 0134 3F3DE0E3 		mvn	r3, #4032
 190 0138 0F2003E5 		str	r2, [r3, #-15]
  87:Non-vectored_IRQ.c **** }
 191              		.loc 1 87 0
 192 013c 1CD04BE2 		sub	sp, fp, #28
 193 0140 0F689DE8 		ldmfd	sp, {r0, r1, r2, r3, fp, sp, lr}
 194 0144 0010BDE8 		ldmfd	sp!, {ip}
 195 0148 04F05EE2 		subs	pc, lr, #4
 196              	.L21:
 197              		.align	2
 198              	.L20:
 199 014c 20000000 		.word	.LC2
 200              	.LFE5:
 201              		.size	EINT2ISR, .-EINT2ISR
 202              		.section	.debug_frame,"",%progbits
 203              	.Lframe0:
 204 0000 0C000000 		.4byte	.LECIE0-.LSCIE0
 205              	.LSCIE0:
 206 0004 FFFFFFFF 		.4byte	0xffffffff
 207 0008 01       		.byte	0x1
 208 0009 00       		.ascii	"\000"
 209 000a 01       		.uleb128 0x1
 210 000b 7C       		.sleb128 -4
 211 000c 0E       		.byte	0xe
 212 000d 0C       		.byte	0xc
 213 000e 0D       		.uleb128 0xd
 214 000f 00       		.uleb128 0x0
 215              		.align	2
 216              	.LECIE0:
 217              	.LSFDE0:
 218 0010 0C000000 		.4byte	.LEFDE0-.LASFDE0
 219              	.LASFDE0:
 220 0014 00000000 		.4byte	.Lframe0
 221 0018 00000000 		.4byte	.LFB2
 222 001c 4C000000 		.4byte	.LFE2-.LFB2
 223              		.align	2
 224              	.LEFDE0:
 225              	.LSFDE2:
 226 0020 0C000000 		.4byte	.LEFDE2-.LASFDE2
 227              	.LASFDE2:
 228 0024 00000000 		.4byte	.Lframe0
 229 0028 4C000000 		.4byte	.LFB3
 230 002c 1C000000 		.4byte	.LFE3-.LFB3
 231              		.align	2
 232              	.LEFDE2:
 233              	.LSFDE4:
 234 0030 1C000000 		.4byte	.LEFDE4-.LASFDE4
 235              	.LASFDE4:
 236 0034 00000000 		.4byte	.Lframe0
 237 0038 68000000 		.4byte	.LFB4
 238 003c 7C000000 		.4byte	.LFE4-.LFB4
 239 0040 44       		.byte	0x4
 240              		.4byte	.LCFI0-.LFB4
 241 0041 0D       		.byte	0xd
 242 0042 0C       		.uleb128 0xc
ARM GAS  /cygdrive/c/DOCUME~1/ADMINI~1/USTAWI~1/Temp/ccAFVufk.s 			page 7


 243 0043 44       		.byte	0x4
 244              		.4byte	.LCFI1-.LCFI0
 245 0044 8E       		.byte	0x8e
 246 0045 02       		.uleb128 0x2
 247 0046 8D       		.byte	0x8d
 248 0047 03       		.uleb128 0x3
 249 0048 8B       		.byte	0x8b
 250 0049 04       		.uleb128 0x4
 251 004a 44       		.byte	0x4
 252              		.4byte	.LCFI2-.LCFI1
 253 004b 0C       		.byte	0xc
 254 004c 0B       		.uleb128 0xb
 255 004d 04       		.uleb128 0x4
 256 004e 0000     		.align	2
 257              	.LEFDE4:
 258              	.LSFDE6:
 259 0050 24000000 		.4byte	.LEFDE6-.LASFDE6
 260              	.LASFDE6:
 261 0054 00000000 		.4byte	.Lframe0
 262 0058 E4000000 		.4byte	.LFB5
 263 005c 6C000000 		.4byte	.LFE5-.LFB5
 264 0060 48       		.byte	0x4
 265              		.4byte	.LCFI3-.LFB5
 266 0061 0D       		.byte	0xd
 267 0062 0C       		.uleb128 0xc
 268 0063 44       		.byte	0x4
 269              		.4byte	.LCFI4-.LCFI3
 270 0064 8E       		.byte	0x8e
 271 0065 02       		.uleb128 0x2
 272 0066 8D       		.byte	0x8d
 273 0067 03       		.uleb128 0x3
 274 0068 8B       		.byte	0x8b
 275 0069 04       		.uleb128 0x4
 276 006a 83       		.byte	0x83
 277 006b 05       		.uleb128 0x5
 278 006c 82       		.byte	0x82
 279 006d 06       		.uleb128 0x6
 280 006e 81       		.byte	0x81
 281 006f 07       		.uleb128 0x7
 282 0070 80       		.byte	0x80
 283 0071 08       		.uleb128 0x8
 284 0072 44       		.byte	0x4
 285              		.4byte	.LCFI5-.LCFI4
 286 0073 0C       		.byte	0xc
 287 0074 0B       		.uleb128 0xb
 288 0075 04       		.uleb128 0x4
 289 0076 0000     		.align	2
 290              	.LEFDE6:
 291              		.text
 292              	.Letext0: