ARM GAS  /cygdrive/c/DOCUME~1/ADMINI~1/USTAWI~1/Temp/cckZ0YRy.s 			page 1


   1              		.file	"IRQ.c"
   8 0000 4A000000 		.text
   8      02001900 
   8      00000201 
   8      FB0E0A00 
   8      01010101 
   9              	.Ltext0:
  10              		.align	2
  11              		.global	EINT2Init
  12              		.type	EINT2Init, %function
  13              	EINT2Init:
  14              	.LFB2:
  15              		.file 1 "IRQ.c"
   1:IRQ.c         **** ////////////////////////////////////////////////////////
   2:IRQ.c         **** // Function:	IRQ interrupt example - EINT2 interrupt
   3:IRQ.c         **** // Target:		LPC2138
   4:IRQ.c         **** // Board:		ZL6ARM
   5:IRQ.c         **** // Quartz:		12MHz
   6:IRQ.c         **** // Compiler:	ARM-GCC
   7:IRQ.c         **** // Author:		Arkadiusz Antoniak @ 2006, Poland
   8:IRQ.c         **** // Copyright:	(c) Arkadiusz Antoniak, 2006
   9:IRQ.c         **** ////////////////////////////////////////////////////////
  10:IRQ.c         **** #include <LPC213x.H>	    
  11:IRQ.c         **** #include "lcd.h"
  12:IRQ.c         **** 
  13:IRQ.c         **** //EINT2 interrupt handler's header
  14:IRQ.c         **** void EINT2ISR(void) __attribute__ ((interrupt("IRQ")));
  15:IRQ.c         **** 
  16:IRQ.c         **** //*******************************
  17:IRQ.c         **** // EINT2 Init
  18:IRQ.c         **** //*******************************
  19:IRQ.c         **** void EINT2Init(void)
  20:IRQ.c         **** {
  16              		.loc 1 20 0
  17              		@ Function supports interworking.
  18              		@ args = 0, pretend = 0, frame = 0
  19              		@ frame_needed = 0, uses_anonymous_args = 0
  20              		@ link register save eliminated.
  21              	.LVL0:
  22              		@ lr needed for prologue
  21:IRQ.c         **** 	//P0.7=EINT2
  22:IRQ.c         **** 	PINSEL0|=(3<<14);
  23              		.loc 1 22 0
  24 0000 0E22A0E3 		mov	r2, #-536870912
  25 0004 0B1982E2 		add	r1, r2, #180224
  26 0008 003091E5 		ldr	r3, [r1, #0]
  27 000c 033983E3 		orr	r3, r3, #49152
  28 0010 003081E5 		str	r3, [r1, #0]
  23:IRQ.c         **** 	
  24:IRQ.c         **** 	//EXT4 edge trigered
  25:IRQ.c         **** 	EXTMODE=(1<<2);
ARM GAS  /cygdrive/c/DOCUME~1/ADMINI~1/USTAWI~1/Temp/cckZ0YRy.s 			page 2


  29              		.loc 1 25 0
  30 0014 7F2982E2 		add	r2, r2, #2080768
  31 0018 0430A0E3 		mov	r3, #4
  32 001c 4831C2E5 		strb	r3, [r2, #328]
  26:IRQ.c         **** 	
  27:IRQ.c         **** 	//Falling edge
  28:IRQ.c         **** 	EXTPOLAR=0;
  33              		.loc 1 28 0
  34 0020 043043E2 		sub	r3, r3, #4
  35 0024 4C31C2E5 		strb	r3, [r2, #332]
  29:IRQ.c         **** 
  30:IRQ.c         **** 	//VIC Slot 1 used for handling EINT2 IRQ
  31:IRQ.c         **** 	VICVectCntl1 = 0x00000030;
  36              		.loc 1 31 0
  37 0028 3020A0E3 		mov	r2, #48
  38 002c DF3EE0E3 		mvn	r3, #3568
  39 0030 0B2003E5 		str	r2, [r3, #-11]
  32:IRQ.c         **** 	VICVectAddr1 = (unsigned int)EINT2ISR;
  40              		.loc 1 32 0
  41 0034 18209FE5 		ldr	r2, .L3
  42 0038 013C43E2 		sub	r3, r3, #256
  43 003c 0B2003E5 		str	r2, [r3, #-11]
  33:IRQ.c         **** 	VICIntEnable |= 0x00010000;
  44              		.loc 1 33 0
  45 0040 FE2EE0E3 		mvn	r2, #4064
  46 0044 0F3012E5 		ldr	r3, [r2, #-15]
  47 0048 013883E3 		orr	r3, r3, #65536
  48 004c 0F3002E5 		str	r3, [r2, #-15]
  34:IRQ.c         **** }
  49              		.loc 1 34 0
  50 0050 1EFF2FE1 		bx	lr
  51              	.L4:
  52              		.align	2
  53              	.L3:
  54 0054 00000000 		.word	EINT2ISR
  55              	.LFE2:
  56              		.size	EINT2Init, .-EINT2Init
  57              		.align	2
  58              		.global	delay
  59              		.type	delay, %function
  60              	delay:
  61              	.LFB3:
  35:IRQ.c         **** 
  36:IRQ.c         **** //*******************************
  37:IRQ.c         **** // Delay function
  38:IRQ.c         **** //*******************************
  39:IRQ.c         **** void delay(unsigned int del_time) 
  40:IRQ.c         **** { 
  62              		.loc 1 40 0
  63              		@ Function supports interworking.
  64              		@ args = 0, pretend = 0, frame = 0
  65              		@ frame_needed = 0, uses_anonymous_args = 0
  66              		@ link register save eliminated.
  67              	.LVL1:
  68              		@ lr needed for prologue
  41:IRQ.c         **** 	unsigned int i;
  42:IRQ.c         **** 	for(i=0;i<del_time;i++);	   
ARM GAS  /cygdrive/c/DOCUME~1/ADMINI~1/USTAWI~1/Temp/cckZ0YRy.s 			page 3


  69              		.loc 1 42 0
  70 0058 000050E3 		cmp	r0, #0
  71 005c 1EFF2F01 		bxeq	lr
  72 0060 0030A0E3 		mov	r3, #0
  73              	.LVL2:
  74              	.L8:
  75 0064 013083E2 		add	r3, r3, #1
  76 0068 030050E1 		cmp	r0, r3
  77 006c 1700001A 		bne	.L8
  78 0070 1EFF2FE1 		bx	lr
  79              	.LFE3:
  80              		.size	delay, .-delay
  81              		.section	.rodata.str1.4,"aMS",%progbits,1
  82              		.align	2
  83              	.LC0:
  84 0000 49525120 		.ascii	"IRQ example\000"
  84      6578616D 
  84      706C6500 
  85              		.align	2
  86              	.LC1:
  87 000c 50726573 		.ascii	"Press S4\000"
  87      73205334 
  87      00
  88              		.text
  89              		.align	2
  90              		.global	main
  91              		.type	main, %function
  92              	main:
  93              	.LFB4:
  43:IRQ.c         **** }
  44:IRQ.c         **** 
  45:IRQ.c         **** //*******************************
  46:IRQ.c         **** // MAIN
  47:IRQ.c         **** //*******************************
  48:IRQ.c         **** int main (void)
  49:IRQ.c         **** {
  94              		.loc 1 49 0
  95              		@ Function supports interworking.
  96              		@ args = 0, pretend = 0, frame = 0
  97              		@ frame_needed = 1, uses_anonymous_args = 0
  98 0074 0DC0A0E1 		mov	ip, sp
  99              	.LCFI0:
 100 0078 00D82DE9 		stmfd	sp!, {fp, ip, lr, pc}
 101              	.LCFI1:
 102 007c 04B04CE2 		sub	fp, ip, #4
 103              	.LCFI2:
  50:IRQ.c         **** 	//Peripherials' frequency = fclk/4 = 15MHz
  51:IRQ.c         **** 	VPBDIV&=0xFFFFFFFC;
 104              		.loc 1 51 0
 105 0080 0E12A0E3 		mov	r1, #-536870912
 106 0084 7F2981E2 		add	r2, r1, #2080768
 107 0088 0031D2E5 		ldrb	r3, [r2, #256]	@ zero_extendqisi2
 108 008c FC3003E2 		and	r3, r3, #252
 109 0090 0031C2E5 		strb	r3, [r2, #256]
  52:IRQ.c         **** 	VPBDIV|=0x00;
 110              		.loc 1 52 0
 111 0094 0031D2E5 		ldrb	r3, [r2, #256]	@ zero_extendqisi2
ARM GAS  /cygdrive/c/DOCUME~1/ADMINI~1/USTAWI~1/Temp/cckZ0YRy.s 			page 4


 112 0098 FF3003E2 		and	r3, r3, #255
 113 009c 0031C2E5 		strb	r3, [r2, #256]
  53:IRQ.c         **** 
  54:IRQ.c         **** 	//Port direction configuration
  55:IRQ.c         **** 	IODIR0 = 0xFF000000;
 114              		.loc 1 55 0
 115 00a0 FF24A0E3 		mov	r2, #-16777216
 116 00a4 8E32A0E3 		mov	r3, #-536870904
 117 00a8 0A3983E2 		add	r3, r3, #163840
 118 00ac 002083E5 		str	r2, [r3, #0]
  56:IRQ.c         **** 	IODIR1 = 0x00FF0000;
 119              		.loc 1 56 0
 120 00b0 0A1981E2 		add	r1, r1, #163840
 121 00b4 FF38A0E3 		mov	r3, #16711680
 122 00b8 183081E5 		str	r3, [r1, #24]
  57:IRQ.c         **** 
  58:IRQ.c         **** 	EINT2Init();
 123              		.loc 1 58 0
 124 00bc FEFFFFEB 		bl	EINT2Init
  59:IRQ.c         **** 	LCDInit();
 125              		.loc 1 59 0
 126 00c0 FEFFFFEB 		bl	LCDInit
  60:IRQ.c         **** 
  61:IRQ.c         **** 	LCDClear();
 127              		.loc 1 61 0
 128 00c4 FEFFFFEB 		bl	LCDClear
  62:IRQ.c         **** 
  63:IRQ.c         **** 	LCDText("IRQ example");
 129              		.loc 1 63 0
 130 00c8 18009FE5 		ldr	r0, .L14
 131 00cc FEFFFFEB 		bl	LCDText
  64:IRQ.c         **** 	LCDGotoXY(0,1);
 132              		.loc 1 64 0
 133 00d0 0000A0E3 		mov	r0, #0
 134 00d4 0110A0E3 		mov	r1, #1
 135 00d8 FEFFFFEB 		bl	LCDGotoXY
  65:IRQ.c         **** 	LCDText("Press S4");
 136              		.loc 1 65 0
 137 00dc 08009FE5 		ldr	r0, .L14+4
 138 00e0 FEFFFFEB 		bl	LCDText
 139              	.L12:
 140 00e4 370000EA 		b	.L12
 141              	.L15:
 142              		.align	2
 143              	.L14:
 144 00e8 00000000 		.word	.LC0
 145 00ec 0C000000 		.word	.LC1
 146              	.LFE4:
 147              		.size	main, .-main
 148              		.section	.rodata.str1.4
 149 0015 000000   		.align	2
 150              	.LC2:
 151 0018 49525120 		.ascii	"IRQ Interrupt!!!\000"
 151      496E7465 
 151      72727570 
 151      74212121 
 151      00
ARM GAS  /cygdrive/c/DOCUME~1/ADMINI~1/USTAWI~1/Temp/cckZ0YRy.s 			page 5


 152 0029 000000   		.text
 153              		.align	2
 154              		.global	EINT2ISR
 155              		.type	EINT2ISR, %function
 156              	EINT2ISR:
 157              	.LFB5:
  66:IRQ.c         **** 
  67:IRQ.c         **** 	while(1);
  68:IRQ.c         **** }
  69:IRQ.c         **** 
  70:IRQ.c         **** //*******************************
  71:IRQ.c         **** // EINT2 interrupt routine
  72:IRQ.c         **** //*******************************
  73:IRQ.c         **** void EINT2ISR(void)
  74:IRQ.c         **** {
 158              		.loc 1 74 0
 159              		@ Interrupt Service Routine.
 160              		@ args = 0, pretend = 0, frame = 0
 161              		@ frame_needed = 1, uses_anonymous_args = 0
 162 00f0 04C02DE5 		str	ip, [sp, #-4]!
 163 00f4 0DC0A0E1 		mov	ip, sp
 164              	.LCFI3:
 165 00f8 0FD82DE9 		stmfd	sp!, {r0, r1, r2, r3, fp, ip, lr, pc}
 166              	.LCFI4:
 167 00fc 04B04CE2 		sub	fp, ip, #4
 168              	.LCFI5:
  75:IRQ.c         **** 	LCDClear();
 169              		.loc 1 75 0
 170 0100 FEFFFFEB 		bl	LCDClear
  76:IRQ.c         **** 	LCDText("IRQ Interrupt!!!");
 171              		.loc 1 76 0
 172 0104 38009FE5 		ldr	r0, .L18
 173 0108 FEFFFFEB 		bl	LCDText
  77:IRQ.c         **** 	delay(0x800000);
 174              		.loc 1 77 0
 175 010c 0205A0E3 		mov	r0, #8388608
 176 0110 FEFFFFEB 		bl	delay
  78:IRQ.c         **** 	LCDClear();
 177              		.loc 1 78 0
 178 0114 FEFFFFEB 		bl	LCDClear
  79:IRQ.c         **** 
  80:IRQ.c         **** 	//Clear EINT2 interrupt flag
  81:IRQ.c         **** 	EXTINT=(1<<2);
 179              		.loc 1 81 0
 180 0118 0420A0E3 		mov	r2, #4
 181 011c 0E32A0E3 		mov	r3, #-536870912
 182 0120 7F3983E2 		add	r3, r3, #2080768
 183 0124 4021C3E5 		strb	r2, [r3, #320]
  82:IRQ.c         **** 	//Ack interrupt
  83:IRQ.c         **** 	VICVectAddr=0x00000000;
 184              		.loc 1 83 0
 185 0128 042042E2 		sub	r2, r2, #4
 186 012c 3F3DE0E3 		mvn	r3, #4032
 187 0130 0F2003E5 		str	r2, [r3, #-15]
  84:IRQ.c         **** }
 188              		.loc 1 84 0
 189 0134 1CD04BE2 		sub	sp, fp, #28
ARM GAS  /cygdrive/c/DOCUME~1/ADMINI~1/USTAWI~1/Temp/cckZ0YRy.s 			page 6


 190 0138 0F689DE8 		ldmfd	sp, {r0, r1, r2, r3, fp, sp, lr}
 191 013c 0010BDE8 		ldmfd	sp!, {ip}
 192 0140 04F05EE2 		subs	pc, lr, #4
 193              	.L19:
 194              		.align	2
 195              	.L18:
 196 0144 18000000 		.word	.LC2
 197              	.LFE5:
 198              		.size	EINT2ISR, .-EINT2ISR
 199              		.section	.debug_frame,"",%progbits
 200              	.Lframe0:
 201 0000 0C000000 		.4byte	.LECIE0-.LSCIE0
 202              	.LSCIE0:
 203 0004 FFFFFFFF 		.4byte	0xffffffff
 204 0008 01       		.byte	0x1
 205 0009 00       		.ascii	"\000"
 206 000a 01       		.uleb128 0x1
 207 000b 7C       		.sleb128 -4
 208 000c 0E       		.byte	0xe
 209 000d 0C       		.byte	0xc
 210 000e 0D       		.uleb128 0xd
 211 000f 00       		.uleb128 0x0
 212              		.align	2
 213              	.LECIE0:
 214              	.LSFDE0:
 215 0010 0C000000 		.4byte	.LEFDE0-.LASFDE0
 216              	.LASFDE0:
 217 0014 00000000 		.4byte	.Lframe0
 218 0018 00000000 		.4byte	.LFB2
 219 001c 58000000 		.4byte	.LFE2-.LFB2
 220              		.align	2
 221              	.LEFDE0:
 222              	.LSFDE2:
 223 0020 0C000000 		.4byte	.LEFDE2-.LASFDE2
 224              	.LASFDE2:
 225 0024 00000000 		.4byte	.Lframe0
 226 0028 58000000 		.4byte	.LFB3
 227 002c 1C000000 		.4byte	.LFE3-.LFB3
 228              		.align	2
 229              	.LEFDE2:
 230              	.LSFDE4:
 231 0030 1C000000 		.4byte	.LEFDE4-.LASFDE4
 232              	.LASFDE4:
 233 0034 00000000 		.4byte	.Lframe0
 234 0038 74000000 		.4byte	.LFB4
 235 003c 7C000000 		.4byte	.LFE4-.LFB4
 236 0040 44       		.byte	0x4
 237              		.4byte	.LCFI0-.LFB4
 238 0041 0D       		.byte	0xd
 239 0042 0C       		.uleb128 0xc
 240 0043 44       		.byte	0x4
 241              		.4byte	.LCFI1-.LCFI0
 242 0044 8E       		.byte	0x8e
 243 0045 02       		.uleb128 0x2
 244 0046 8D       		.byte	0x8d
 245 0047 03       		.uleb128 0x3
 246 0048 8B       		.byte	0x8b
ARM GAS  /cygdrive/c/DOCUME~1/ADMINI~1/USTAWI~1/Temp/cckZ0YRy.s 			page 7


 247 0049 04       		.uleb128 0x4
 248 004a 44       		.byte	0x4
 249              		.4byte	.LCFI2-.LCFI1
 250 004b 0C       		.byte	0xc
 251 004c 0B       		.uleb128 0xb
 252 004d 04       		.uleb128 0x4
 253 004e 0000     		.align	2
 254              	.LEFDE4:
 255              	.LSFDE6:
 256 0050 24000000 		.4byte	.LEFDE6-.LASFDE6
 257              	.LASFDE6:
 258 0054 00000000 		.4byte	.Lframe0
 259 0058 F0000000 		.4byte	.LFB5
 260 005c 58000000 		.4byte	.LFE5-.LFB5
 261 0060 48       		.byte	0x4
 262              		.4byte	.LCFI3-.LFB5
 263 0061 0D       		.byte	0xd
 264 0062 0C       		.uleb128 0xc
 265 0063 44       		.byte	0x4
 266              		.4byte	.LCFI4-.LCFI3
 267 0064 8E       		.byte	0x8e
 268 0065 02       		.uleb128 0x2
 269 0066 8D       		.byte	0x8d
 270 0067 03       		.uleb128 0x3
 271 0068 8B       		.byte	0x8b
 272 0069 04       		.uleb128 0x4
 273 006a 83       		.byte	0x83
 274 006b 05       		.uleb128 0x5
 275 006c 82       		.byte	0x82
 276 006d 06       		.uleb128 0x6
 277 006e 81       		.byte	0x81
 278 006f 07       		.uleb128 0x7
 279 0070 80       		.byte	0x80
 280 0071 08       		.uleb128 0x8
 281 0072 44       		.byte	0x4
 282              		.4byte	.LCFI5-.LCFI4
 283 0073 0C       		.byte	0xc
 284 0074 0B       		.uleb128 0xb
 285 0075 04       		.uleb128 0x4
 286 0076 0000     		.align	2
 287              	.LEFDE6:
 288              		.text
 289              	.Letext0: