ARM GAS  /cygdrive/c/DOCUME~1/Admin/USTAWI~1/Temp/ccVJuWuG.s 			page 1


   1              		.file	"serialISR.c"
   8 0000 8A000000 		.text
   8      02004700 
   8      00000201 
   8      FB0E0D00 
   8      01010101 
   9              	.Ltext0:
  10              		.align	2
  11              		.global	vUART_ISR_Handler
  12              		.type	vUART_ISR_Handler, %function
  13              	vUART_ISR_Handler:
  14              	.LFB4:
  15              		.file 1 "serial/serialISR.c"
   1:serial/serialISR.c **** /*
   2:serial/serialISR.c **** 	FreeRTOS.org V5.1.1 - Copyright (C) 2003-2008 Richard Barry.
   3:serial/serialISR.c **** 
   4:serial/serialISR.c **** 	This file is part of the FreeRTOS.org distribution.
   5:serial/serialISR.c **** 
   6:serial/serialISR.c **** 	FreeRTOS.org is free software; you can redistribute it and/or modify
   7:serial/serialISR.c **** 	it under the terms of the GNU General Public License as published by
   8:serial/serialISR.c **** 	the Free Software Foundation; either version 2 of the License, or
   9:serial/serialISR.c **** 	(at your option) any later version.
  10:serial/serialISR.c **** 
  11:serial/serialISR.c **** 	FreeRTOS.org is distributed in the hope that it will be useful,
  12:serial/serialISR.c **** 	but WITHOUT ANY WARRANTY; without even the implied warranty of
  13:serial/serialISR.c **** 	MERCHANTABILITY or FITNESS FOR A PARTICULAR PURPOSE.  See the
  14:serial/serialISR.c **** 	GNU General Public License for more details.
  15:serial/serialISR.c **** 
  16:serial/serialISR.c **** 	You should have received a copy of the GNU General Public License
  17:serial/serialISR.c **** 	along with FreeRTOS.org; if not, write to the Free Software
  18:serial/serialISR.c **** 	Foundation, Inc., 59 Temple Place, Suite 330, Boston, MA  02111-1307  USA
  19:serial/serialISR.c **** 
  20:serial/serialISR.c **** 	A special exception to the GPL can be applied should you wish to distribute
  21:serial/serialISR.c **** 	a combined work that includes FreeRTOS.org, without being obliged to provide
  22:serial/serialISR.c **** 	the source code for any proprietary components.  See the licensing section 
  23:serial/serialISR.c **** 	of http://www.FreeRTOS.org for full details of how and when the exception
  24:serial/serialISR.c **** 	can be applied.
  25:serial/serialISR.c **** 
  26:serial/serialISR.c ****     ***************************************************************************
  27:serial/serialISR.c ****     ***************************************************************************
  28:serial/serialISR.c ****     *                                                                         *
  29:serial/serialISR.c ****     * SAVE TIME AND MONEY!  We can port FreeRTOS.org to your own hardware,    *
  30:serial/serialISR.c ****     * and even write all or part of your application on your behalf.          *
  31:serial/serialISR.c ****     * See http://www.OpenRTOS.com for details of the services we provide to   *
  32:serial/serialISR.c ****     * expedite your project.                                                  *
  33:serial/serialISR.c ****     *                                                                         *
  34:serial/serialISR.c ****     ***************************************************************************
  35:serial/serialISR.c ****     ***************************************************************************
  36:serial/serialISR.c **** 
  37:serial/serialISR.c **** 	Please ensure to read the configuration and relevant port sections of the
  38:serial/serialISR.c **** 	online documentation.
ARM GAS  /cygdrive/c/DOCUME~1/Admin/USTAWI~1/Temp/ccVJuWuG.s 			page 2


  39:serial/serialISR.c **** 
  40:serial/serialISR.c **** 	http://www.FreeRTOS.org - Documentation, latest information, license and 
  41:serial/serialISR.c **** 	contact details.
  42:serial/serialISR.c **** 
  43:serial/serialISR.c **** 	http://www.SafeRTOS.com - A version that is certified for use in safety 
  44:serial/serialISR.c **** 	critical systems.
  45:serial/serialISR.c **** 
  46:serial/serialISR.c **** 	http://www.OpenRTOS.com - Commercial support, development, porting, 
  47:serial/serialISR.c **** 	licensing and training services.
  48:serial/serialISR.c **** */
  49:serial/serialISR.c **** 
  50:serial/serialISR.c **** 
  51:serial/serialISR.c **** /* 
  52:serial/serialISR.c **** 	BASIC INTERRUPT DRIVEN SERIAL PORT DRIVER FOR UART0. 
  53:serial/serialISR.c **** 
  54:serial/serialISR.c **** 	This file contains all the serial port components that must be compiled
  55:serial/serialISR.c **** 	to ARM mode.  The components that can be compiled to either ARM or THUMB
  56:serial/serialISR.c **** 	mode are contained in serial.c.
  57:serial/serialISR.c **** 
  58:serial/serialISR.c **** */
  59:serial/serialISR.c **** 
  60:serial/serialISR.c **** /* Standard includes. */
  61:serial/serialISR.c **** #include <stdlib.h>
  62:serial/serialISR.c **** 
  63:serial/serialISR.c **** /* Scheduler includes. */
  64:serial/serialISR.c **** #include "FreeRTOS.h"
  65:serial/serialISR.c **** #include "queue.h"
  66:serial/serialISR.c **** #include "task.h"
  67:serial/serialISR.c **** 
  68:serial/serialISR.c **** /* Demo application includes. */
  69:serial/serialISR.c **** #include "serial.h"
  70:serial/serialISR.c **** 
  71:serial/serialISR.c **** /*-----------------------------------------------------------*/
  72:serial/serialISR.c **** 
  73:serial/serialISR.c **** /* Constant to access the VIC. */
  74:serial/serialISR.c **** #define serCLEAR_VIC_INTERRUPT			( ( unsigned portLONG ) 0 )
  75:serial/serialISR.c **** 
  76:serial/serialISR.c **** /* Constants to determine the ISR source. */
  77:serial/serialISR.c **** #define serSOURCE_THRE					( ( unsigned portCHAR ) 0x02 )
  78:serial/serialISR.c **** #define serSOURCE_RX_TIMEOUT			( ( unsigned portCHAR ) 0x0c )
  79:serial/serialISR.c **** #define serSOURCE_ERROR					( ( unsigned portCHAR ) 0x06 )
  80:serial/serialISR.c **** #define serSOURCE_RX					( ( unsigned portCHAR ) 0x04 )
  81:serial/serialISR.c **** #define serINTERRUPT_SOURCE_MASK		( ( unsigned portCHAR ) 0x0f )
  82:serial/serialISR.c **** 
  83:serial/serialISR.c **** /* Queues used to hold received characters, and characters waiting to be
  84:serial/serialISR.c **** transmitted. */
  85:serial/serialISR.c **** static xQueueHandle xRxedChars; 
  86:serial/serialISR.c **** static xQueueHandle xCharsForTx; 
  87:serial/serialISR.c **** static volatile portLONG lTHREEmpty;
  88:serial/serialISR.c **** 
  89:serial/serialISR.c **** /*-----------------------------------------------------------*/
  90:serial/serialISR.c **** 
  91:serial/serialISR.c **** /* 
  92:serial/serialISR.c ****  * The queues are created in serialISR.c as they are used from the ISR.
  93:serial/serialISR.c ****  * Obtain references to the queues and THRE Empty flag. 
  94:serial/serialISR.c ****  */
  95:serial/serialISR.c **** void vSerialISRCreateQueues( unsigned portBASE_TYPE uxQueueLength, xQueueHandle *pxRxedChars, xQueu
ARM GAS  /cygdrive/c/DOCUME~1/Admin/USTAWI~1/Temp/ccVJuWuG.s 			page 3


  96:serial/serialISR.c **** 
  97:serial/serialISR.c **** /* UART0 interrupt service routine entry point. */
  98:serial/serialISR.c **** void vUART_ISR_Wrapper( void ) __attribute__ ((naked));
  99:serial/serialISR.c **** 
 100:serial/serialISR.c **** /* UART0 interrupt service routine handler. */
 101:serial/serialISR.c **** void vUART_ISR_Handler( void );
 102:serial/serialISR.c **** 
 103:serial/serialISR.c **** /*-----------------------------------------------------------*/
 104:serial/serialISR.c **** void vSerialISRCreateQueues(	unsigned portBASE_TYPE uxQueueLength, xQueueHandle *pxRxedChars, 
 105:serial/serialISR.c **** 								xQueueHandle *pxCharsForTx, portLONG volatile **pplTHREEmptyFlag )
 106:serial/serialISR.c **** {
 107:serial/serialISR.c **** 	/* Create the queues used to hold Rx and Tx characters. */
 108:serial/serialISR.c **** 	xRxedChars = xQueueCreate( uxQueueLength, ( unsigned portBASE_TYPE ) sizeof( signed portCHAR ) );
 109:serial/serialISR.c **** 	xCharsForTx = xQueueCreate( uxQueueLength + 1, ( unsigned portBASE_TYPE ) sizeof( signed portCHAR 
 110:serial/serialISR.c **** 
 111:serial/serialISR.c **** 	/* Pass back a reference to the queues so the serial API file can 
 112:serial/serialISR.c **** 	post/receive characters. */
 113:serial/serialISR.c **** 	*pxRxedChars = xRxedChars;
 114:serial/serialISR.c **** 	*pxCharsForTx = xCharsForTx;
 115:serial/serialISR.c **** 
 116:serial/serialISR.c **** 	/* Initialise the THRE empty flag - and pass back a reference. */
 117:serial/serialISR.c **** 	lTHREEmpty = ( portLONG ) pdTRUE;
 118:serial/serialISR.c **** 	*pplTHREEmptyFlag = &lTHREEmpty;
 119:serial/serialISR.c **** }
 120:serial/serialISR.c **** /*-----------------------------------------------------------*/
 121:serial/serialISR.c **** 
 122:serial/serialISR.c **** void vUART_ISR_Wrapper( void )
 123:serial/serialISR.c **** {
 124:serial/serialISR.c **** 	/* Save the context of the interrupted task. */
 125:serial/serialISR.c **** 	portSAVE_CONTEXT();
 126:serial/serialISR.c **** 
 127:serial/serialISR.c **** 	/* Call the handler.  This must be a separate function from the wrapper
 128:serial/serialISR.c **** 	to ensure the correct stack frame is set up. */
 129:serial/serialISR.c **** 	vUART_ISR_Handler();
 130:serial/serialISR.c **** 
 131:serial/serialISR.c **** 	/* Restore the context of whichever task is going to run next. */
 132:serial/serialISR.c **** 	portRESTORE_CONTEXT();
 133:serial/serialISR.c **** }
 134:serial/serialISR.c **** /*-----------------------------------------------------------*/
 135:serial/serialISR.c **** 
 136:serial/serialISR.c **** void vUART_ISR_Handler( void )
 137:serial/serialISR.c **** {
  16              		.loc 1 137 0
  17              		@ Function supports interworking.
  18              		@ args = 0, pretend = 0, frame = 8
  19              		@ frame_needed = 0, uses_anonymous_args = 0
  20 0000 04E02DE5 		str	lr, [sp, #-4]!
  21              	.LCFI0:
 138:serial/serialISR.c **** signed portCHAR cChar;
 139:serial/serialISR.c **** portBASE_TYPE xHigherPriorityTaskWoken = pdFALSE;
  22              		.loc 1 139 0
  23 0004 0030A0E3 		mov	r3, #0
  24              		.loc 1 137 0
  25 0008 08D04DE2 		sub	sp, sp, #8
  26              	.LCFI1:
  27              		.loc 1 139 0
  28 000c 00308DE5 		str	r3, [sp, #0]
ARM GAS  /cygdrive/c/DOCUME~1/Admin/USTAWI~1/Temp/ccVJuWuG.s 			page 4


  29              	.LVL0:
 140:serial/serialISR.c **** 
 141:serial/serialISR.c **** 	/* What caused the interrupt? */
 142:serial/serialISR.c **** 	switch( UART0_IIR & serINTERRUPT_SOURCE_MASK )
  30              		.loc 1 142 0
  31 0010 C8309FE5 		ldr	r3, .L13
  32 0014 083093E5 		ldr	r3, [r3, #8]
  33 0018 0F3003E2 		and	r3, r3, #15
  34 001c 023043E2 		sub	r3, r3, #2
  35 0020 0A0053E3 		cmp	r3, #10
  36 0024 03F19F97 		ldrls	pc, [pc, r3, asl #2]
  37 0028 230000EA 		b	.L2
  38              		.p2align 2
  39              	.L6:
  40 002c 68000000 		.word	.L3
  41 0030 BC000000 		.word	.L2
  42 0034 98000000 		.word	.L4
  43 0038 BC000000 		.word	.L2
  44 003c 58000000 		.word	.L5
  45 0040 BC000000 		.word	.L2
  46 0044 BC000000 		.word	.L2
  47 0048 BC000000 		.word	.L2
  48 004c BC000000 		.word	.L2
  49 0050 BC000000 		.word	.L2
  50 0054 98000000 		.word	.L4
  51              	.L5:
 143:serial/serialISR.c **** 	{
 144:serial/serialISR.c **** 		case serSOURCE_ERROR :	/* Not handling this, but clear the interrupt. */
 145:serial/serialISR.c **** 								cChar = UART0_LSR;
  52              		.loc 1 145 0
  53 0058 80309FE5 		ldr	r3, .L13
  54 005c 143093E5 		ldr	r3, [r3, #20]
  55 0060 0730CDE5 		strb	r3, [sp, #7]
  56              	.LVL1:
  57 0064 140000EA 		b	.L2
  58              	.LVL2:
  59              	.L3:
 146:serial/serialISR.c **** 								break;
 147:serial/serialISR.c **** 
 148:serial/serialISR.c **** 		case serSOURCE_THRE	:	/* The THRE is empty.  If there is another
 149:serial/serialISR.c **** 								character in the Tx queue, send it now. */
 150:serial/serialISR.c **** 								if( xQueueReceiveFromISR( xCharsForTx, &cChar, &xHigherPriorityTaskWoken ) == pdTRUE )
  60              		.loc 1 150 0
  61 0068 74309FE5 		ldr	r3, .L13+4
  62 006c 0D20A0E1 		mov	r2, sp
  63 0070 000093E5 		ldr	r0, [r3, #0]
  64 0074 07108DE2 		add	r1, sp, #7
  65 0078 FEFFFFEB 		bl	xQueueReceiveFromISR
  66 007c 010050E3 		cmp	r0, #1
 151:serial/serialISR.c **** 								{
 152:serial/serialISR.c **** 									UART0_THR = cChar;
  67              		.loc 1 152 0
  68 0080 D720DD01 		ldreqsb	r2, [sp, #7]
  69              	.LVL3:
  70 0084 54309F05 		ldreq	r3, .L13
 153:serial/serialISR.c **** 								}
 154:serial/serialISR.c **** 								else
ARM GAS  /cygdrive/c/DOCUME~1/Admin/USTAWI~1/Temp/ccVJuWuG.s 			page 5


 155:serial/serialISR.c **** 								{
 156:serial/serialISR.c **** 									/* There are no further characters 
 157:serial/serialISR.c **** 									queued to send so we can indicate 
 158:serial/serialISR.c **** 									that the THRE is available. */
 159:serial/serialISR.c **** 									lTHREEmpty = pdTRUE;
  71              		.loc 1 159 0
  72 0088 58309F15 		ldrne	r3, .L13+8
  73 008c 0120A013 		movne	r2, #1
  74 0090 002083E5 		str	r2, [r3, #0]
  75 0094 080000EA 		b	.L2
  76              	.LVL4:
  77              	.L4:
 160:serial/serialISR.c **** 								}
 161:serial/serialISR.c **** 								break;
 162:serial/serialISR.c **** 
 163:serial/serialISR.c **** 		case serSOURCE_RX_TIMEOUT :
 164:serial/serialISR.c **** 		case serSOURCE_RX	:	/* A character was received.  Place it in 
 165:serial/serialISR.c **** 								the queue of received characters. */
 166:serial/serialISR.c **** 								cChar = UART0_RBR;
  78              		.loc 1 166 0
  79 0098 40309FE5 		ldr	r3, .L13
  80 009c 003093E5 		ldr	r3, [r3, #0]
  81 00a0 08108DE2 		add	r1, sp, #8
  82 00a4 013061E5 		strb	r3, [r1, #-1]!
  83              	.LVL5:
 167:serial/serialISR.c **** 								xQueueSendFromISR( xRxedChars, &cChar, &xHigherPriorityTaskWoken );
  84              		.loc 1 167 0
  85 00a8 3C309FE5 		ldr	r3, .L13+12
  86 00ac 0D20A0E1 		mov	r2, sp
  87 00b0 000093E5 		ldr	r0, [r3, #0]
  88 00b4 0030A0E3 		mov	r3, #0
  89 00b8 FEFFFFEB 		bl	xQueueGenericSendFromISR
  90              	.LVL6:
  91              	.L2:
 168:serial/serialISR.c **** 								break;
 169:serial/serialISR.c **** 
 170:serial/serialISR.c **** 		default				:	/* There is nothing to do, leave the ISR. */
 171:serial/serialISR.c **** 								break;
 172:serial/serialISR.c **** 	}
 173:serial/serialISR.c **** 
 174:serial/serialISR.c **** 	if( xHigherPriorityTaskWoken )
  92              		.loc 1 174 0
  93 00bc 00309DE5 		ldr	r3, [sp, #0]
  94 00c0 000053E3 		cmp	r3, #0
  95              	.LVL7:
 175:serial/serialISR.c **** 	{
 176:serial/serialISR.c **** 		portYIELD_FROM_ISR();
  96              		.loc 1 176 0
  97 00c4 FEFFFF1B 		blne	vTaskSwitchContext
  98              	.LVL8:
  99              	.L9:
 177:serial/serialISR.c **** 	}
 178:serial/serialISR.c **** 
 179:serial/serialISR.c **** 	/* Clear the ISR in the VIC. */
 180:serial/serialISR.c **** 	VICVectAddr = serCLEAR_VIC_INTERRUPT;
 100              		.loc 1 180 0
 101 00c8 0020A0E3 		mov	r2, #0
ARM GAS  /cygdrive/c/DOCUME~1/Admin/USTAWI~1/Temp/ccVJuWuG.s 			page 6


 102 00cc 0030E0E3 		mvn	r3, #0
 103 00d0 CF2F03E5 		str	r2, [r3, #-4047]
 181:serial/serialISR.c **** }
 104              		.loc 1 181 0
 105 00d4 08D08DE2 		add	sp, sp, #8
 106 00d8 04E09DE4 		ldr	lr, [sp], #4
 107 00dc 1EFF2FE1 		bx	lr
 108              	.L14:
 109              		.align	2
 110              	.L13:
 111 00e0 00C000E0 		.word	-536821760
 112 00e4 04000000 		.word	xCharsForTx
 113 00e8 08000000 		.word	lTHREEmpty
 114 00ec 00000000 		.word	xRxedChars
 115              	.LFE4:
 116              		.size	vUART_ISR_Handler, .-vUART_ISR_Handler
 117              		.align	2
 118              		.global	vUART_ISR_Wrapper
 119              		.type	vUART_ISR_Wrapper, %function
 120              	vUART_ISR_Wrapper:
 121              	.LFB3:
 122              		.loc 1 123 0
 123              		@ Function supports interworking.
 124              		@ Naked Function: prologue and epilogue provided by programmer.
 125              		@ args = 0, pretend = 0, frame = 0
 126              		@ frame_needed = 0, uses_anonymous_args = 0
 127              		.loc 1 125 0
 128 00f0 01002DE9 		STMDB	SP!, {R0}											
 129 00f4 00204DE9 		STMDB	SP,{SP}^											
 130 00f8 0000A0E1 		NOP														
 131 00fc 04D04DE2 		SUB	SP, SP, #4											
 132 0100 0100BDE8 		LDMIA	SP!,{R0}											
 133 0104 004020E9 		STMDB	R0!, {LR}											
 134 0108 00E0A0E1 		MOV	LR, R0												
 135 010c 0100BDE8 		LDMIA	SP!, {R0}											
 136 0110 FF7F4EE9 		STMDB	LR,{R0-LR}^											
 137 0114 0000A0E1 		NOP														
 138 0118 3CE04EE2 		SUB	LR, LR, #60											
 139 011c 00004FE1 		MRS	R0, SPSR											
 140 0120 01002EE9 		STMDB	LR!, {R0}											
 141 0124 CC009FE5 		LDR	R0, =ulCriticalNesting								
 142 0128 000090E5 		LDR	R0, [R0]											
 143 012c 01002EE9 		STMDB	LR!, {R0}											
 144 0130 C4009FE5 		LDR	R0, =pxCurrentTCB									
 145 0134 000090E5 		LDR	R0, [R0]											
 146 0138 00E080E5 		STR	LR, [R0]											
 147              		
 148 013c 44409FE5 		ldr	r4, .L17
 149 0140 44509FE5 		ldr	r5, .L17+4
 150 0144 003094E5 		ldr	r3, [r4, #0]
 151 0148 003095E5 		ldr	r3, [r5, #0]
 152              		.loc 1 129 0
 153 014c FEFFFFEB 		bl	vUART_ISR_Handler
 154              		.loc 1 132 0
 155 0150 A4009FE5 		LDR		R0, =pxCurrentTCB								
 156 0154 000090E5 		LDR		R0, [R0]										
 157 0158 00E090E5 		LDR		LR, [R0]										
ARM GAS  /cygdrive/c/DOCUME~1/Admin/USTAWI~1/Temp/ccVJuWuG.s 			page 7


 158 015c 94009FE5 		LDR		R0, =ulCriticalNesting							
 159 0160 0200BEE8 		LDMFD	LR!, {R1}											
 160 0164 001080E5 		STR		R1, [R0]										
 161 0168 0100BEE8 		LDMFD	LR!, {R0}											
 162 016c 00F069E1 		MSR		SPSR, R0										
 163 0170 FF7FDEE8 		LDMFD	LR, {R0-R14}^										
 164 0174 0000A0E1 		NOP														
 165 0178 3CE09EE5 		LDR		LR, [LR, #+60]									
 166 017c 04F05EE2 		SUBS	PC, LR, #4											
 167              		
 168 0180 003094E5 		ldr	r3, [r4, #0]
 169 0184 003095E5 		ldr	r3, [r5, #0]
 170              		.loc 1 133 0
 171              	.L18:
 172              		.align	2
 173              	.L17:
 174 0188 00000000 		.word	ulCriticalNesting
 175 018c 00000000 		.word	pxCurrentTCB
 176              	.LFE3:
 177              		.size	vUART_ISR_Wrapper, .-vUART_ISR_Wrapper
 178              		.align	2
 179              		.global	vSerialISRCreateQueues
 180              		.type	vSerialISRCreateQueues, %function
 181              	vSerialISRCreateQueues:
 182              	.LFB2:
 183              		.loc 1 106 0
 184              		@ Function supports interworking.
 185              		@ args = 0, pretend = 0, frame = 0
 186              		@ frame_needed = 0, uses_anonymous_args = 0
 187              	.LVL9:
 188 0190 F0412DE9 		stmfd	sp!, {r4, r5, r6, r7, r8, lr}
 189              	.LCFI2:
 190              		.loc 1 106 0
 191 0194 0170A0E1 		mov	r7, r1
 192              		.loc 1 108 0
 193 0198 0110A0E3 		mov	r1, #1
 194              	.LVL10:
 195              		.loc 1 106 0
 196 019c 0260A0E1 		mov	r6, r2
 197 01a0 0380A0E1 		mov	r8, r3
 198 01a4 0040A0E1 		mov	r4, r0
 199              		.loc 1 108 0
 200 01a8 FEFFFFEB 		bl	xQueueCreate
 201              	.LVL11:
 202 01ac 38509FE5 		ldr	r5, .L21
 203              		.loc 1 109 0
 204 01b0 0110A0E3 		mov	r1, #1
 205              		.loc 1 108 0
 206 01b4 000085E5 		str	r0, [r5, #0]
 207              		.loc 1 109 0
 208 01b8 010084E2 		add	r0, r4, #1
 209 01bc FEFFFFEB 		bl	xQueueCreate
 210 01c0 28309FE5 		ldr	r3, .L21+4
 211              		.loc 1 113 0
 212 01c4 002095E5 		ldr	r2, [r5, #0]
 213              		.loc 1 117 0
 214 01c8 24109FE5 		ldr	r1, .L21+8
ARM GAS  /cygdrive/c/DOCUME~1/Admin/USTAWI~1/Temp/ccVJuWuG.s 			page 8


 215              		.loc 1 109 0
 216 01cc 000083E5 		str	r0, [r3, #0]
 217              		.loc 1 117 0
 218 01d0 0130A0E3 		mov	r3, #1
 219              		.loc 1 113 0
 220 01d4 002087E5 		str	r2, [r7, #0]
 221              		.loc 1 114 0
 222 01d8 000086E5 		str	r0, [r6, #0]
 223              		.loc 1 117 0
 224 01dc 003081E5 		str	r3, [r1, #0]
 225              		.loc 1 118 0
 226 01e0 001088E5 		str	r1, [r8, #0]
 227              		.loc 1 119 0
 228 01e4 F041BDE8 		ldmfd	sp!, {r4, r5, r6, r7, r8, lr}
 229 01e8 1EFF2FE1 		bx	lr
 230              	.L22:
 231              		.align	2
 232              	.L21:
 233 01ec 00000000 		.word	xRxedChars
 234 01f0 04000000 		.word	xCharsForTx
 235 01f4 08000000 		.word	lTHREEmpty
 236              	.LFE2:
 237              		.size	vSerialISRCreateQueues, .-vSerialISRCreateQueues
 238              		.bss
 239              		.align	2
 240              	xRxedChars:
 241 0000 00000000 		.space	4
 242              		.align	2
 243              	xCharsForTx:
 244 0004 00000000 		.space	4
 245              		.align	2
 246              	lTHREEmpty:
 247 0008 00000000 		.space	4
 248              		.section	.debug_frame,"",%progbits
 249              	.Lframe0:
 250 0000 0C000000 		.4byte	.LECIE0-.LSCIE0
 251              	.LSCIE0:
 252 0004 FFFFFFFF 		.4byte	0xffffffff
 253 0008 01       		.byte	0x1
 254 0009 00       		.ascii	"\000"
 255 000a 01       		.uleb128 0x1
 256 000b 7C       		.sleb128 -4
 257 000c 0E       		.byte	0xe
 258 000d 0C       		.byte	0xc
 259 000e 0D       		.uleb128 0xd
 260 000f 00       		.uleb128 0x0
 261              		.align	2
 262              	.LECIE0:
 263              	.LSFDE0:
 264 0010 14000000 		.4byte	.LEFDE0-.LASFDE0
 265              	.LASFDE0:
 266 0014 00000000 		.4byte	.Lframe0
 267 0018 00000000 		.4byte	.LFB4
 268 001c F0000000 		.4byte	.LFE4-.LFB4
 269 0020 44       		.byte	0x4
 270              		.4byte	.LCFI0-.LFB4
 271 0021 0E       		.byte	0xe
ARM GAS  /cygdrive/c/DOCUME~1/Admin/USTAWI~1/Temp/ccVJuWuG.s 			page 9


 272 0022 04       		.uleb128 0x4
 273 0023 48       		.byte	0x4
 274              		.4byte	.LCFI1-.LCFI0
 275 0024 0E       		.byte	0xe
 276 0025 0C       		.uleb128 0xc
 277 0026 8E       		.byte	0x8e
 278 0027 01       		.uleb128 0x1
 279              		.align	2
 280              	.LEFDE0:
 281              	.LSFDE2:
 282 0028 0C000000 		.4byte	.LEFDE2-.LASFDE2
 283              	.LASFDE2:
 284 002c 00000000 		.4byte	.Lframe0
 285 0030 F0000000 		.4byte	.LFB3
 286 0034 A0000000 		.4byte	.LFE3-.LFB3
 287              		.align	2
 288              	.LEFDE2:
 289              	.LSFDE4:
 290 0038 1C000000 		.4byte	.LEFDE4-.LASFDE4
 291              	.LASFDE4:
 292 003c 00000000 		.4byte	.Lframe0
 293 0040 90010000 		.4byte	.LFB2
 294 0044 68000000 		.4byte	.LFE2-.LFB2
 295 0048 44       		.byte	0x4
 296              		.4byte	.LCFI2-.LFB2
 297 0049 0E       		.byte	0xe
 298 004a 18       		.uleb128 0x18
 299 004b 8E       		.byte	0x8e
 300 004c 01       		.uleb128 0x1
 301 004d 88       		.byte	0x88
 302 004e 02       		.uleb128 0x2
 303 004f 87       		.byte	0x87
 304 0050 03       		.uleb128 0x3
 305 0051 86       		.byte	0x86
 306 0052 04       		.uleb128 0x4
 307 0053 85       		.byte	0x85
 308 0054 05       		.uleb128 0x5
 309 0055 84       		.byte	0x84
 310 0056 06       		.uleb128 0x6
 311 0057 00       		.align	2
 312              	.LEFDE4:
 313              		.text
 314              	.Letext0: