ARM GAS  /cygdrive/c/DOCUME~1/ADMINI~1/USTAWI~1/Temp/ccZNA5Ah.s 			page 1


   1              		.file	"RC5Receiver.c"
   8 0000 8C000000 		.text
   8      02002100 
   8      00000201 
   8      FB0E0A00 
   8      01010101 
   9              	.Ltext0:
  10              		.align	2
  11              		.global	RC5_RX
  12              		.type	RC5_RX, %function
  13              	RC5_RX:
  14              	.LFB2:
  15              		.file 1 "RC5Receiver.c"
   1:RC5Receiver.c **** ////////////////////////////////////////////////////////
   2:RC5Receiver.c **** // Function:	RC5 receiver
   3:RC5Receiver.c **** // Target:		LPC2138
   4:RC5Receiver.c **** // Board:		ZL6ARM
   5:RC5Receiver.c **** // Quartz:		12MHz
   6:RC5Receiver.c **** // Compiler:	ARM-GCC-4.0.1 (www.gnuarm.com)
   7:RC5Receiver.c **** // Author:		Arkadiusz Antoniak @ 2006, Poland
   8:RC5Receiver.c **** // Copyright:	(c) Arkadiusz Antoniak, 2006
   9:RC5Receiver.c **** ////////////////////////////////////////////////////////
  10:RC5Receiver.c **** #include <LPC213x.H>
  11:RC5Receiver.c **** #include "Timer.h"
  12:RC5Receiver.c **** #include "lcd.h"
  13:RC5Receiver.c **** 
  14:RC5Receiver.c **** extern volatile unsigned int time_count;
  15:RC5Receiver.c **** 	 
  16:RC5Receiver.c **** #define IRED_PIN		(IOPIN0 & (1<<2))
  17:RC5Receiver.c **** #define BIT_TIMER_EN    T1TCR
  18:RC5Receiver.c **** #define FRAME_TIMEOUT   6000
  19:RC5Receiver.c **** #define MIN_BIT_TIME    150
  20:RC5Receiver.c **** #define MAX_BIT_TIME    250
  21:RC5Receiver.c **** 
  22:RC5Receiver.c **** //Error codes
  23:RC5Receiver.c **** #define ERR_BIT_TIME		1
  24:RC5Receiver.c **** #define ERR_SAMPLING		2
  25:RC5Receiver.c **** #define ERR_FRAME_TIMEOUT	3
  26:RC5Receiver.c **** 
  27:RC5Receiver.c **** 
  28:RC5Receiver.c **** //*******************************
  29:RC5Receiver.c **** // RC5 frame receiver
  30:RC5Receiver.c **** // waits for leading edge of the RC5 frame
  31:RC5Receiver.c **** // returns:
  32:RC5Receiver.c **** // 0 - OK
  33:RC5Receiver.c **** // 1 - bit time error
  34:RC5Receiver.c **** // 2 - sampling error
  35:RC5Receiver.c **** // 3 - frame timeout
  36:RC5Receiver.c **** //*******************************
  37:RC5Receiver.c **** unsigned int RC5_RX(unsigned int *ptoggle, unsigned int *paddress, unsigned int *pcommand)
  38:RC5Receiver.c **** {
ARM GAS  /cygdrive/c/DOCUME~1/ADMINI~1/USTAWI~1/Temp/ccZNA5Ah.s 			page 2


  16              		.loc 1 38 0
  17              		@ Function supports interworking.
  18              		@ args = 0, pretend = 0, frame = 4
  19              		@ frame_needed = 0, uses_anonymous_args = 0
  20              	.LVL0:
  21 0000 F0472DE9 		stmfd	sp!, {r4, r5, r6, r7, r8, r9, sl, lr}
  22              	.LCFI0:
  23 0004 04D04DE2 		sub	sp, sp, #4
  24              	.LCFI1:
  25              	.LVL1:
  26 0008 0240A0E1 		mov	r4, r2
  27 000c 0E32A0E3 		mov	r3, #-536870912
  28 0010 0AC983E2 		add	ip, r3, #163840
  29              	.LVL2:
  30              	.L3:
  39:RC5Receiver.c **** 	unsigned int bit_time, tmp_time, i, tmp_ired;
  40:RC5Receiver.c **** 
  41:RC5Receiver.c **** 	//wait for start of transmission
  42:RC5Receiver.c **** 	while(IRED_PIN!=0);
  31              		.loc 1 42 0
  32 0014 00309CE5 		ldr	r3, [ip, #0]
  33 0018 042013E2 		ands	r2, r3, #4
  34 001c 0300001A 		bne	.L3
  43:RC5Receiver.c **** 
  44:RC5Receiver.c **** 	//measure bit pulse time
  45:RC5Receiver.c **** 	time_count=0;
  35              		.loc 1 45 0
  36 0020 F4319FE5 		ldr	r3, .L51
  37 0024 002083E5 		str	r2, [r3, #0]
  46:RC5Receiver.c **** 	BIT_TIMER_EN=1;
  38              		.loc 1 46 0
  39 0028 0120A0E3 		mov	r2, #1
  40 002c 0239A0E3 		mov	r3, #32768
  41 0030 4E3283E2 		add	r3, r3, #-536870908
  42 0034 002083E5 		str	r2, [r3, #0]
  43 0038 0E32A0E3 		mov	r3, #-536870912
  44 003c 0AE983E2 		add	lr, r3, #163840
  45 0040 D4C19FE5 		ldr	ip, .L51
  46 0044 5D3DA0E3 		mov	r3, #5952
  47 0048 302083E2 		add	r2, r3, #48
  48 004c 150000EA 		b	.L5
  49              	.L6:
  47:RC5Receiver.c **** 	while(IRED_PIN==0)
  48:RC5Receiver.c **** 		if(time_count>FRAME_TIMEOUT)
  50              		.loc 1 48 0
  51 0050 00309CE5 		ldr	r3, [ip, #0]
  52 0054 020053E1 		cmp	r3, r2
  53 0058 8100008A 		bhi	.L7
  54              	.L5:
  55              		.loc 1 47 0
  56 005c 00309EE5 		ldr	r3, [lr, #0]
  57 0060 040013E3 		tst	r3, #4
  58 0064 1200000A 		beq	.L6
  59 0068 0E32A0E3 		mov	r3, #-536870912
  60 006c 0AE983E2 		add	lr, r3, #163840
  61 0070 A4C19FE5 		ldr	ip, .L51
  62 0074 5D3DA0E3 		mov	r3, #5952
ARM GAS  /cygdrive/c/DOCUME~1/ADMINI~1/USTAWI~1/Temp/ccZNA5Ah.s 			page 3


  63 0078 302083E2 		add	r2, r3, #48
  64 007c 210000EA 		b	.L8
  65              	.L9:
  49:RC5Receiver.c **** 			return ERR_FRAME_TIMEOUT;
  50:RC5Receiver.c **** 
  51:RC5Receiver.c **** 	while(IRED_PIN!=0)
  52:RC5Receiver.c **** 		if(time_count>FRAME_TIMEOUT)
  66              		.loc 1 52 0
  67 0080 00309CE5 		ldr	r3, [ip, #0]
  68 0084 020053E1 		cmp	r3, r2
  69 0088 8100008A 		bhi	.L7
  70              	.L8:
  71              		.loc 1 51 0
  72 008c 00309EE5 		ldr	r3, [lr, #0]
  73 0090 040013E3 		tst	r3, #4
  74 0094 1E00001A 		bne	.L9
  53:RC5Receiver.c **** 			return ERR_FRAME_TIMEOUT;
  54:RC5Receiver.c **** 
  55:RC5Receiver.c **** 	bit_time=time_count;
  75              		.loc 1 55 0
  76 0098 7C319FE5 		ldr	r3, .L51
  77 009c 005093E5 		ldr	r5, [r3, #0]
  78              	.LVL3:
  56:RC5Receiver.c **** 
  57:RC5Receiver.c **** 	//error?
  58:RC5Receiver.c **** 	if((bit_time<MIN_BIT_TIME) || (bit_time>MAX_BIT_TIME))
  79              		.loc 1 58 0
  80 00a0 963045E2 		sub	r3, r5, #150
  81 00a4 640053E3 		cmp	r3, #100
  82 00a8 0100A083 		movhi	r0, #1
  83              	.LVL4:
  84 00ac 8200008A 		bhi	.L13
  59:RC5Receiver.c **** 		return ERR_BIT_TIME;
  60:RC5Receiver.c **** 
  61:RC5Receiver.c **** 	//waiting 0.75*bit time
  62:RC5Receiver.c **** 	tmp_time=time_count;
  85              		.loc 1 62 0
  86 00b0 64319FE5 		ldr	r3, .L51
  87 00b4 00C093E5 		ldr	ip, [r3, #0]
  88              	.LVL5:
  63:RC5Receiver.c **** 	while((time_count-tmp_time)<=(3*bit_time)/4);
  89              		.loc 1 63 0
  90 00b8 853085E0 		add	r3, r5, r5, asl #1
  91 00bc 2321A0E1 		mov	r2, r3, lsr #2
  92 00c0 54E19FE5 		ldr	lr, .L51
  93              	.L14:
  94 00c4 00309EE5 		ldr	r3, [lr, #0]
  95 00c8 03306CE0 		rsb	r3, ip, r3
  96 00cc 020053E1 		cmp	r3, r2
  97 00d0 2F00009A 		bls	.L14
  64:RC5Receiver.c **** 
  65:RC5Receiver.c **** 
  66:RC5Receiver.c **** 	//main RC5 loop
  67:RC5Receiver.c **** 	for(*pcommand=0,*paddress=0,*ptoggle=0,i=0;i<12;i++)
  98              		.loc 1 67 0
  99 00d4 0030A0E3 		mov	r3, #0
 100 00d8 003084E5 		str	r3, [r4, #0]
ARM GAS  /cygdrive/c/DOCUME~1/ADMINI~1/USTAWI~1/Temp/ccZNA5Ah.s 			page 4


 101 00dc 003081E5 		str	r3, [r1, #0]
 102              	.LVL6:
 103 00e0 003080E5 		str	r3, [r0, #0]
 104 00e4 0390A0E1 		mov	r9, r3
 105              	.LVL7:
 106 00e8 0E3283E2 		add	r3, r3, #-536870912
 107 00ec 0A7983E2 		add	r7, r3, #163840
 108 00f0 24619FE5 		ldr	r6, .L51
 109 00f4 5D3DA0E3 		mov	r3, #5952
 110 00f8 30A083E2 		add	sl, r3, #48
 111 00fc 2531A0E1 		mov	r3, r5, lsr #2
 112 0100 00308DE5 		str	r3, [sp, #0]
 113              	.LVL8:
 114              	.L16:
  68:RC5Receiver.c **** 	{
  69:RC5Receiver.c **** 		//waiting for the edge
  70:RC5Receiver.c **** 		tmp_ired=IRED_PIN;
 115              		.loc 1 70 0
 116 0104 003097E5 		ldr	r3, [r7, #0]
 117 0108 042003E2 		and	r2, r3, #4
 118              	.LVL9:
 119 010c 450000EA 		b	.L17
 120              	.L18:
  71:RC5Receiver.c **** 		while(IRED_PIN==tmp_ired)
  72:RC5Receiver.c **** 			if(time_count>FRAME_TIMEOUT)
 121              		.loc 1 72 0
 122 0110 003096E5 		ldr	r3, [r6, #0]
 123 0114 0A0053E1 		cmp	r3, sl
 124 0118 8100008A 		bhi	.L7
 125              	.L17:
 126              		.loc 1 71 0
 127 011c 003097E5 		ldr	r3, [r7, #0]
 128 0120 043003E2 		and	r3, r3, #4
 129 0124 030052E1 		cmp	r2, r3
 130 0128 4200000A 		beq	.L18
  73:RC5Receiver.c **** 				return ERR_FRAME_TIMEOUT;
  74:RC5Receiver.c **** 
  75:RC5Receiver.c **** 
  76:RC5Receiver.c **** 		//waiting 0.25*bit time
  77:RC5Receiver.c **** 		tmp_time=time_count;
 131              		.loc 1 77 0
 132 012c 00C096E5 		ldr	ip, [r6, #0]
 133              	.LVL10:
 134 0130 E4E09FE5 		ldr	lr, .L51
 135 0134 00209DE5 		ldr	r2, [sp, #0]
 136              	.LVL11:
 137              	.L20:
  78:RC5Receiver.c **** 		while((time_count-tmp_time)<=bit_time/4);
 138              		.loc 1 78 0
 139 0138 00309EE5 		ldr	r3, [lr, #0]
 140 013c 03306CE0 		rsb	r3, ip, r3
 141 0140 020053E1 		cmp	r3, r2
 142 0144 4C00009A 		bls	.L20
  79:RC5Receiver.c **** 
  80:RC5Receiver.c **** 		//sampling two times
  81:RC5Receiver.c **** 		tmp_ired=IRED_PIN;
 143              		.loc 1 81 0
ARM GAS  /cygdrive/c/DOCUME~1/ADMINI~1/USTAWI~1/Temp/ccZNA5Ah.s 			page 5


 144 0148 003097E5 		ldr	r3, [r7, #0]
 145 014c 048003E2 		and	r8, r3, #4
  82:RC5Receiver.c **** 
  83:RC5Receiver.c **** 		//wait for cca. 0.10 of half bit time
  84:RC5Receiver.c **** 		tmp_time=time_count;
 146              		.loc 1 84 0
 147 0150 00C09EE5 		ldr	ip, [lr, #0]
 148              	.LVL12:
 149 0154 C0209FE5 		ldr	r2, .L51
 150              	.L22:
  85:RC5Receiver.c **** 		while((time_count-tmp_time)<=10);
 151              		.loc 1 85 0
 152 0158 003092E5 		ldr	r3, [r2, #0]
 153 015c 03306CE0 		rsb	r3, ip, r3
 154 0160 0A0053E3 		cmp	r3, #10
 155 0164 5400009A 		bls	.L22
  86:RC5Receiver.c **** 
  87:RC5Receiver.c **** 		if(IRED_PIN!=tmp_ired)
 156              		.loc 1 87 0
 157 0168 003097E5 		ldr	r3, [r7, #0]
 158 016c 043003E2 		and	r3, r3, #4
 159 0170 030058E1 		cmp	r8, r3
 160 0174 7F00001A 		bne	.L37
  88:RC5Receiver.c **** 			return ERR_SAMPLING;
  89:RC5Receiver.c **** 
  90:RC5Receiver.c **** 		if(i==0)
 161              		.loc 1 90 0
 162 0178 000059E3 		cmp	r9, #0
 163 017c 6300001A 		bne	.L26
  91:RC5Receiver.c **** 		{
  92:RC5Receiver.c **** 			//toggle bit
  93:RC5Receiver.c **** 			if(tmp_ired==0)
 164              		.loc 1 93 0
 165 0180 000058E3 		cmp	r8, #0
  94:RC5Receiver.c **** 				*ptoggle|=1;
 166              		.loc 1 94 0
 167 0184 00309005 		ldreq	r3, [r0, #0]
 168 0188 01308303 		orreq	r3, r3, #1
 169 018c 00308005 		streq	r3, [r0, #0]
 170 0190 720000EA 		b	.L38
 171              	.L26:
  95:RC5Receiver.c **** 		}
  96:RC5Receiver.c **** 		else if(i<6)
 172              		.loc 1 96 0
 173 0194 050059E3 		cmp	r9, #5
 174 0198 6C00008A 		bhi	.L30
  97:RC5Receiver.c **** 		{
  98:RC5Receiver.c **** 			//address
  99:RC5Receiver.c **** 			*paddress<<=1;
 175              		.loc 1 99 0
 176 019c 003091E5 		ldr	r3, [r1, #0]
 177 01a0 8330A0E1 		mov	r3, r3, asl #1
 178 01a4 003081E5 		str	r3, [r1, #0]
 100:RC5Receiver.c **** 			if(tmp_ired==0)
 179              		.loc 1 100 0
 180 01a8 000058E3 		cmp	r8, #0
 101:RC5Receiver.c **** 				*paddress|=1;
ARM GAS  /cygdrive/c/DOCUME~1/ADMINI~1/USTAWI~1/Temp/ccZNA5Ah.s 			page 6


 181              		.loc 1 101 0
 182 01ac 01308303 		orreq	r3, r3, #1
 183 01b0 00308105 		streq	r3, [r1, #0]
 184 01b4 720000EA 		b	.L38
 185              	.L30:
 102:RC5Receiver.c **** 		}
 103:RC5Receiver.c **** 		else
 104:RC5Receiver.c **** 		{
 105:RC5Receiver.c **** 			//command
 106:RC5Receiver.c **** 			*pcommand<<=1;
 186              		.loc 1 106 0
 187 01b8 003094E5 		ldr	r3, [r4, #0]
 188 01bc 8330A0E1 		mov	r3, r3, asl #1
 189 01c0 003084E5 		str	r3, [r4, #0]
 107:RC5Receiver.c **** 			if(tmp_ired==0)
 190              		.loc 1 107 0
 191 01c4 000058E3 		cmp	r8, #0
 108:RC5Receiver.c **** 				*pcommand|=1;
 192              		.loc 1 108 0
 193 01c8 01308303 		orreq	r3, r3, #1
 194 01cc 00308405 		streq	r3, [r4, #0]
 195              	.L38:
 109:RC5Receiver.c **** 		}
 110:RC5Receiver.c **** 
 111:RC5Receiver.c **** 		//wait half bit time
 112:RC5Receiver.c **** 		while((time_count-tmp_time)<=bit_time/2);
 196              		.loc 1 112 0
 197 01d0 003096E5 		ldr	r3, [r6, #0]
 198 01d4 03306CE0 		rsb	r3, ip, r3
 199 01d8 A50053E1 		cmp	r3, r5, lsr #1
 200 01dc 7200009A 		bls	.L38
 201              		.loc 1 67 0
 202 01e0 019089E2 		add	r9, r9, #1
 203 01e4 0C0059E3 		cmp	r9, #12
 204 01e8 3F00001A 		bne	.L16
 113:RC5Receiver.c **** 	}
 114:RC5Receiver.c **** 	BIT_TIMER_EN=0;
 205              		.loc 1 114 0
 206 01ec 0020A0E3 		mov	r2, #0
 207 01f0 0239A0E3 		mov	r3, #32768
 208 01f4 4E3283E2 		add	r3, r3, #-536870908
 209 01f8 002083E5 		str	r2, [r3, #0]
 210 01fc 0200A0E1 		mov	r0, r2
 211              	.LVL13:
 212 0200 820000EA 		b	.L13
 213              	.LVL14:
 214              	.L37:
 215              		.loc 1 87 0
 216 0204 0200A0E3 		mov	r0, #2
 217              	.LVL15:
 218 0208 820000EA 		b	.L13
 219              	.LVL16:
 220              	.L7:
 115:RC5Receiver.c **** 
 116:RC5Receiver.c **** 	return 0;
 221              		.loc 1 116 0
 222 020c 0300A0E3 		mov	r0, #3
ARM GAS  /cygdrive/c/DOCUME~1/ADMINI~1/USTAWI~1/Temp/ccZNA5Ah.s 			page 7


 223              	.LVL17:
 224              	.L13:
 117:RC5Receiver.c **** }
 225              		.loc 1 117 0
 226 0210 04D08DE2 		add	sp, sp, #4
 227 0214 F047BDE8 		ldmfd	sp!, {r4, r5, r6, r7, r8, r9, sl, lr}
 228 0218 1EFF2FE1 		bx	lr
 229              	.L52:
 230              		.align	2
 231              	.L51:
 232 021c 00000000 		.word	time_count
 233              	.LFE2:
 234              		.size	RC5_RX, .-RC5_RX
 235              		.align	2
 236              		.global	WaitForKeyRelease
 237              		.type	WaitForKeyRelease, %function
 238              	WaitForKeyRelease:
 239              	.LFB3:
 118:RC5Receiver.c **** 
 119:RC5Receiver.c **** //*******************************
 120:RC5Receiver.c **** // Waits for RC5 remote key release
 121:RC5Receiver.c **** // returns, when no signal received
 122:RC5Receiver.c **** // during at least MinimumNoSignalTime miliseconds
 123:RC5Receiver.c **** //*******************************
 124:RC5Receiver.c **** void WaitForKeyRelease(unsigned int MinimumNoSignalTime)
 125:RC5Receiver.c **** {
 240              		.loc 1 125 0
 241              		@ Function supports interworking.
 242              		@ args = 0, pretend = 0, frame = 0
 243              		@ frame_needed = 0, uses_anonymous_args = 0
 244              		@ link register save eliminated.
 245              	.LVL18:
 246              		@ lr needed for prologue
 126:RC5Receiver.c **** 	const unsigned int MinNoSignalTicks=115*MinimumNoSignalTime;
 247              		.loc 1 126 0
 248 0220 803080E0 		add	r3, r0, r0, asl #1
 249 0224 830160E0 		rsb	r0, r0, r3, asl #3
 250              	.LVL19:
 251 0228 001180E0 		add	r1, r0, r0, asl #2
 252              	.LVL20:
 127:RC5Receiver.c **** 
 128:RC5Receiver.c **** 	time_count=0;
 253              		.loc 1 128 0
 254 022c 0020A0E3 		mov	r2, #0
 255 0230 4C309FE5 		ldr	r3, .L65
 256 0234 002083E5 		str	r2, [r3, #0]
 129:RC5Receiver.c **** 	BIT_TIMER_EN=1;
 257              		.loc 1 129 0
 258 0238 012082E2 		add	r2, r2, #1
 259 023c 0239A0E3 		mov	r3, #32768
 260 0240 4E3283E2 		add	r3, r3, #-536870908
 261 0244 002083E5 		str	r2, [r3, #0]
 262 0248 34209FE5 		ldr	r2, .L65
 263 024c 0E32A0E3 		mov	r3, #-536870912
 264 0250 0A0983E2 		add	r0, r3, #163840
 265 0254 970000EA 		b	.L64
 266              	.L55:
ARM GAS  /cygdrive/c/DOCUME~1/ADMINI~1/USTAWI~1/Temp/ccZNA5Ah.s 			page 8


 130:RC5Receiver.c **** 	while(time_count<MinNoSignalTicks)
 131:RC5Receiver.c **** 		if(IRED_PIN==0)
 267              		.loc 1 131 0
 268 0258 003090E5 		ldr	r3, [r0, #0]
 269 025c 043013E2 		ands	r3, r3, #4
 132:RC5Receiver.c **** 			time_count=0;		
 270              		.loc 1 132 0
 271 0260 00308205 		streq	r3, [r2, #0]
 272              	.L64:
 273              		.loc 1 130 0
 274 0264 003092E5 		ldr	r3, [r2, #0]
 275 0268 030051E1 		cmp	r1, r3
 276 026c 9400008A 		bhi	.L55
 133:RC5Receiver.c **** 	BIT_TIMER_EN=0;
 277              		.loc 1 133 0
 278 0270 0020A0E3 		mov	r2, #0
 279 0274 0239A0E3 		mov	r3, #32768
 280 0278 4E3283E2 		add	r3, r3, #-536870908
 281 027c 002083E5 		str	r2, [r3, #0]
 134:RC5Receiver.c **** }
 282              		.loc 1 134 0
 283 0280 1EFF2FE1 		bx	lr
 284              	.L66:
 285              		.align	2
 286              	.L65:
 287 0284 00000000 		.word	time_count
 288              	.LFE3:
 289              		.size	WaitForKeyRelease, .-WaitForKeyRelease
 290              		.section	.rodata.str1.4,"aMS",%progbits,1
 291              		.align	2
 292              	.LC0:
 293 0000 52433520 		.ascii	"RC5 Receiver\000"
 293      52656365 
 293      69766572 
 293      00
 294 000d 000000   		.align	2
 295              	.LC1:
 296 0010 55736520 		.ascii	"Use your remote\000"
 296      796F7572 
 296      2072656D 
 296      6F746500 
 297              		.align	2
 298              	.LC2:
 299 0020 436F6D6D 		.ascii	"Command: \000"
 299      616E643A 
 299      2000
 300 002a 0000     		.align	2
 301              	.LC3:
 302 002c 41646472 		.ascii	"Address: \000"
 302      6573733A 
 302      2000
 303 0036 0000     		.align	2
 304              	.LC4:
 305 0038 2C20543A 		.ascii	", T:\000"
 305      00
 306 003d 000000   		.align	2
 307              	.LC5:
ARM GAS  /cygdrive/c/DOCUME~1/ADMINI~1/USTAWI~1/Temp/ccZNA5Ah.s 			page 9


 308 0040 4552525F 		.ascii	"ERR_BIT_TIME\000"
 308      4249545F 
 308      54494D45 
 308      00
 309 004d 000000   		.align	2
 310              	.LC6:
 311 0050 4552525F 		.ascii	"ERR_SAMPLING\000"
 311      53414D50 
 311      4C494E47 
 311      00
 312 005d 000000   		.align	2
 313              	.LC7:
 314 0060 4552525F 		.ascii	"ERR_FRAME_TIMEOUT\000"
 314      4652414D 
 314      455F5449 
 314      4D454F55 
 314      5400
 315 0072 0000     		.text
 316              		.align	2
 317              		.global	main
 318              		.type	main, %function
 319              	main:
 320              	.LFB4:
 135:RC5Receiver.c **** 
 136:RC5Receiver.c **** //*******************************
 137:RC5Receiver.c **** // MAIN
 138:RC5Receiver.c **** //*******************************
 139:RC5Receiver.c **** int main(void) 
 140:RC5Receiver.c **** {
 321              		.loc 1 140 0
 322              		@ Function supports interworking.
 323              		@ args = 0, pretend = 0, frame = 12
 324              		@ frame_needed = 1, uses_anonymous_args = 0
 325 0288 0DC0A0E1 		mov	ip, sp
 326              	.LCFI2:
 327 028c 10D82DE9 		stmfd	sp!, {r4, fp, ip, lr, pc}
 328              	.LCFI3:
 329 0290 04B04CE2 		sub	fp, ip, #4
 330              	.LCFI4:
 331 0294 0CD04DE2 		sub	sp, sp, #12
 332              	.LCFI5:
 141:RC5Receiver.c **** 	//Peripherials' frequency = fclk/4 = 15MHz
 142:RC5Receiver.c **** 	VPBDIV&=0xFFFFFFFC;
 333              		.loc 1 142 0
 334 0298 0E12A0E3 		mov	r1, #-536870912
 335 029c 7F2981E2 		add	r2, r1, #2080768
 336 02a0 0031D2E5 		ldrb	r3, [r2, #256]	@ zero_extendqisi2
 337 02a4 FC3003E2 		and	r3, r3, #252
 338 02a8 0031C2E5 		strb	r3, [r2, #256]
 143:RC5Receiver.c **** 	VPBDIV|=0x00;
 339              		.loc 1 143 0
 340 02ac 0031D2E5 		ldrb	r3, [r2, #256]	@ zero_extendqisi2
 341 02b0 FF3003E2 		and	r3, r3, #255
 342 02b4 0031C2E5 		strb	r3, [r2, #256]
 144:RC5Receiver.c **** 	
 145:RC5Receiver.c **** 	//P1.16..23 defined as outputs
 146:RC5Receiver.c **** 	IODIR1 = 0x00FF0000;
ARM GAS  /cygdrive/c/DOCUME~1/ADMINI~1/USTAWI~1/Temp/ccZNA5Ah.s 			page 10


 343              		.loc 1 146 0
 344 02b8 0A1981E2 		add	r1, r1, #163840
 345 02bc FF38A0E3 		mov	r3, #16711680
 346 02c0 183081E5 		str	r3, [r1, #24]
 147:RC5Receiver.c **** 
 148:RC5Receiver.c **** 	//P0.2 defined as input
 149:RC5Receiver.c **** 	IODIR0 = 0xFF000000;
 347              		.loc 1 149 0
 348 02c4 FF24A0E3 		mov	r2, #-16777216
 349 02c8 8E32A0E3 		mov	r3, #-536870904
 350 02cc 0A3983E2 		add	r3, r3, #163840
 351 02d0 002083E5 		str	r2, [r3, #0]
 150:RC5Receiver.c **** 
 151:RC5Receiver.c **** 	//inits
 152:RC5Receiver.c **** 	LCDInit();
 352              		.loc 1 152 0
 353 02d4 FEFFFFEB 		bl	LCDInit
 153:RC5Receiver.c **** 	init_bit_timer();
 354              		.loc 1 153 0
 355 02d8 FEFFFFEB 		bl	init_bit_timer
 154:RC5Receiver.c **** 
 155:RC5Receiver.c **** 	LCDClear();
 356              		.loc 1 155 0
 357 02dc FEFFFFEB 		bl	LCDClear
 156:RC5Receiver.c **** 	LCDText("RC5 Receiver");
 358              		.loc 1 156 0
 359 02e0 B4009FE5 		ldr	r0, .L78
 360 02e4 FEFFFFEB 		bl	LCDText
 157:RC5Receiver.c **** 	LCDGotoXY(0,1);
 361              		.loc 1 157 0
 362 02e8 0000A0E3 		mov	r0, #0
 363 02ec 0110A0E3 		mov	r1, #1
 364 02f0 FEFFFFEB 		bl	LCDGotoXY
 158:RC5Receiver.c **** 	LCDText("Use your remote");
 365              		.loc 1 158 0
 366 02f4 A4009FE5 		ldr	r0, .L78+4
 367 02f8 FEFFFFEB 		bl	LCDText
 368              	.LVL21:
 369              	.L68:
 370              	.LBB2:
 159:RC5Receiver.c **** 
 160:RC5Receiver.c **** 	while(1)
 161:RC5Receiver.c **** 	{
 162:RC5Receiver.c **** 		unsigned int toggle,address,command,err;
 163:RC5Receiver.c **** 
 164:RC5Receiver.c **** 		//receive RC5 frame
 165:RC5Receiver.c **** 		err=RC5_RX(&toggle,&address,&command);
 371              		.loc 1 165 0
 372 02fc 14004BE2 		sub	r0, fp, #20
 373 0300 18104BE2 		sub	r1, fp, #24
 374 0304 1C204BE2 		sub	r2, fp, #28
 375 0308 FEFFFFEB 		bl	RC5_RX
 376 030c 0040A0E1 		mov	r4, r0
 166:RC5Receiver.c **** 
 167:RC5Receiver.c **** 		LCDClear();
 377              		.loc 1 167 0
 378 0310 FEFFFFEB 		bl	LCDClear
ARM GAS  /cygdrive/c/DOCUME~1/ADMINI~1/USTAWI~1/Temp/ccZNA5Ah.s 			page 11


 168:RC5Receiver.c **** 		if(err==0)
 379              		.loc 1 168 0
 380 0314 000054E3 		cmp	r4, #0
 381 0318 D500001A 		bne	.L69
 169:RC5Receiver.c **** 		{
 170:RC5Receiver.c **** 			LCDText("Command: ");
 382              		.loc 1 170 0
 383 031c 80009FE5 		ldr	r0, .L78+8
 384 0320 FEFFFFEB 		bl	LCDText
 171:RC5Receiver.c **** 			LCD32bitNumberDec(command);
 385              		.loc 1 171 0
 386 0324 1C001BE5 		ldr	r0, [fp, #-28]
 387 0328 FEFFFFEB 		bl	LCD32bitNumberDec
 172:RC5Receiver.c **** 			LCDGotoXY(0,1);
 388              		.loc 1 172 0
 389 032c 0400A0E1 		mov	r0, r4
 390 0330 0110A0E3 		mov	r1, #1
 391 0334 FEFFFFEB 		bl	LCDGotoXY
 173:RC5Receiver.c **** 			LCDText("Address: ");
 392              		.loc 1 173 0
 393 0338 68009FE5 		ldr	r0, .L78+12
 394 033c FEFFFFEB 		bl	LCDText
 174:RC5Receiver.c **** 			LCD32bitNumberDec(address);
 395              		.loc 1 174 0
 396 0340 18001BE5 		ldr	r0, [fp, #-24]
 397 0344 FEFFFFEB 		bl	LCD32bitNumberDec
 175:RC5Receiver.c **** 			LCDText(", T:");
 398              		.loc 1 175 0
 399 0348 5C009FE5 		ldr	r0, .L78+16
 400 034c FEFFFFEB 		bl	LCDText
 176:RC5Receiver.c **** 			LCD32bitNumberDec(toggle);
 401              		.loc 1 176 0
 402 0350 14001BE5 		ldr	r0, [fp, #-20]
 403 0354 FEFFFFEB 		bl	LCD32bitNumberDec
 404 0358 E20000EA 		b	.L71
 405              	.L69:
 177:RC5Receiver.c **** 		}
 178:RC5Receiver.c **** 		else if(err==ERR_BIT_TIME)
 406              		.loc 1 178 0
 407 035c 010054E3 		cmp	r4, #1
 408 0360 DA00001A 		bne	.L72
 179:RC5Receiver.c **** 			LCDText("ERR_BIT_TIME");
 409              		.loc 1 179 0
 410 0364 44009FE5 		ldr	r0, .L78+20
 411 0368 FEFFFFEB 		bl	LCDText
 412 036c E20000EA 		b	.L71
 413              	.L72:
 180:RC5Receiver.c **** 		else if(err==ERR_SAMPLING)
 414              		.loc 1 180 0
 415 0370 020054E3 		cmp	r4, #2
 416 0374 DF00001A 		bne	.L74
 181:RC5Receiver.c **** 			LCDText("ERR_SAMPLING");
 417              		.loc 1 181 0
 418 0378 34009FE5 		ldr	r0, .L78+24
 419 037c FEFFFFEB 		bl	LCDText
 420 0380 E20000EA 		b	.L71
 421              	.L74:
ARM GAS  /cygdrive/c/DOCUME~1/ADMINI~1/USTAWI~1/Temp/ccZNA5Ah.s 			page 12


 182:RC5Receiver.c **** 		else if(err==ERR_FRAME_TIMEOUT)
 422              		.loc 1 182 0
 423 0384 030054E3 		cmp	r4, #3
 183:RC5Receiver.c **** 			LCDText("ERR_FRAME_TIMEOUT");
 424              		.loc 1 183 0
 425 0388 28009F05 		ldreq	r0, .L78+28
 426 038c FEFFFF0B 		bleq	LCDText
 427              	.L71:
 184:RC5Receiver.c **** 
 185:RC5Receiver.c **** 		//wait for key release (cca. 100ms without signal)
 186:RC5Receiver.c **** 		WaitForKeyRelease(100);
 428              		.loc 1 186 0
 429 0390 6400A0E3 		mov	r0, #100
 430 0394 FEFFFFEB 		bl	WaitForKeyRelease
 431 0398 BD0000EA 		b	.L68
 432              	.L79:
 433              		.align	2
 434              	.L78:
 435 039c 00000000 		.word	.LC0
 436 03a0 10000000 		.word	.LC1
 437 03a4 20000000 		.word	.LC2
 438 03a8 2C000000 		.word	.LC3
 439 03ac 38000000 		.word	.LC4
 440 03b0 40000000 		.word	.LC5
 441 03b4 50000000 		.word	.LC6
 442 03b8 60000000 		.word	.LC7
 443              	.LBE2:
 444              	.LFE4:
 445              		.size	main, .-main
 446              		.section	.debug_frame,"",%progbits
 447              	.Lframe0:
 448 0000 0C000000 		.4byte	.LECIE0-.LSCIE0
 449              	.LSCIE0:
 450 0004 FFFFFFFF 		.4byte	0xffffffff
 451 0008 01       		.byte	0x1
 452 0009 00       		.ascii	"\000"
 453 000a 01       		.uleb128 0x1
 454 000b 7C       		.sleb128 -4
 455 000c 0E       		.byte	0xe
 456 000d 0C       		.byte	0xc
 457 000e 0D       		.uleb128 0xd
 458 000f 00       		.uleb128 0x0
 459              		.align	2
 460              	.LECIE0:
 461              	.LSFDE0:
 462 0010 24000000 		.4byte	.LEFDE0-.LASFDE0
 463              	.LASFDE0:
 464 0014 00000000 		.4byte	.Lframe0
 465 0018 00000000 		.4byte	.LFB2
 466 001c 20020000 		.4byte	.LFE2-.LFB2
 467 0020 44       		.byte	0x4
 468              		.4byte	.LCFI0-.LFB2
 469 0021 0E       		.byte	0xe
 470 0022 20       		.uleb128 0x20
 471 0023 44       		.byte	0x4
 472              		.4byte	.LCFI1-.LCFI0
 473 0024 0E       		.byte	0xe
ARM GAS  /cygdrive/c/DOCUME~1/ADMINI~1/USTAWI~1/Temp/ccZNA5Ah.s 			page 13


 474 0025 24       		.uleb128 0x24
 475 0026 8E       		.byte	0x8e
 476 0027 01       		.uleb128 0x1
 477 0028 8A       		.byte	0x8a
 478 0029 02       		.uleb128 0x2
 479 002a 89       		.byte	0x89
 480 002b 03       		.uleb128 0x3
 481 002c 88       		.byte	0x88
 482 002d 04       		.uleb128 0x4
 483 002e 87       		.byte	0x87
 484 002f 05       		.uleb128 0x5
 485 0030 86       		.byte	0x86
 486 0031 06       		.uleb128 0x6
 487 0032 85       		.byte	0x85
 488 0033 07       		.uleb128 0x7
 489 0034 84       		.byte	0x84
 490 0035 08       		.uleb128 0x8
 491 0036 0000     		.align	2
 492              	.LEFDE0:
 493              	.LSFDE2:
 494 0038 0C000000 		.4byte	.LEFDE2-.LASFDE2
 495              	.LASFDE2:
 496 003c 00000000 		.4byte	.Lframe0
 497 0040 20020000 		.4byte	.LFB3
 498 0044 68000000 		.4byte	.LFE3-.LFB3
 499              		.align	2
 500              	.LEFDE2:
 501              	.LSFDE4:
 502 0048 1C000000 		.4byte	.LEFDE4-.LASFDE4
 503              	.LASFDE4:
 504 004c 00000000 		.4byte	.Lframe0
 505 0050 88020000 		.4byte	.LFB4
 506 0054 34010000 		.4byte	.LFE4-.LFB4
 507 0058 44       		.byte	0x4
 508              		.4byte	.LCFI2-.LFB4
 509 0059 0D       		.byte	0xd
 510 005a 0C       		.uleb128 0xc
 511 005b 44       		.byte	0x4
 512              		.4byte	.LCFI3-.LCFI2
 513 005c 8E       		.byte	0x8e
 514 005d 02       		.uleb128 0x2
 515 005e 8D       		.byte	0x8d
 516 005f 03       		.uleb128 0x3
 517 0060 8B       		.byte	0x8b
 518 0061 04       		.uleb128 0x4
 519 0062 84       		.byte	0x84
 520 0063 05       		.uleb128 0x5
 521 0064 44       		.byte	0x4
 522              		.4byte	.LCFI4-.LCFI3
 523 0065 0C       		.byte	0xc
 524 0066 0B       		.uleb128 0xb
 525 0067 04       		.uleb128 0x4
 526              		.align	2
 527              	.LEFDE4:
 528              		.text
 529              	.Letext0: