ARM GAS  /cygdrive/c/DOCUME~1/ADMINI~1/USTAWI~1/Temp/ccqQPE7T.s 			page 1


   1              		.file	"led.c"
   2              		.section	.debug_abbrev,"",%progbits
   3              	.Ldebug_abbrev0:
   4              		.section	.debug_info,"",%progbits
   5              	.Ldebug_info0:
   6              		.section	.debug_line,"",%progbits
   7              	.Ldebug_line0:
   8 0000 75000000 		.text
   8      02001900 
   8      00000201 
   8      FB0E0A00 
   8      01010101 
   9              	.Ltext0:
  10              		.align	2
  11              		.global	delay
  12              		.type	delay, %function
  13              	delay:
  14              	.LFB2:
  15              		.file 1 "led.c"
   1:led.c         **** ////////////////////////////////////////////////////////
   2:led.c         **** // Function:	LED example
   3:led.c         **** // Target:		LPC2138
   4:led.c         **** // Board:		ZL6ARM
   5:led.c         **** // Quartz:		12MHz
   6:led.c         **** // Compiler:	ARM-GCC
   7:led.c         **** // Author:		Arkadiusz Antoniak @ 2005, Poland
   8:led.c         **** // Copyright:	(c) Arkadiusz Antoniak, 2005
   9:led.c         **** ////////////////////////////////////////////////////////
  10:led.c         ****                   
  11:led.c         **** #include <LPC213x.H>
  12:led.c         **** 
  13:led.c         **** //*******************************
  14:led.c         **** // Delay function
  15:led.c         **** //*******************************
  16:led.c         **** void delay(unsigned int del_time) 
  17:led.c         **** { 
  16              		.loc 1 17 0
  17              		@ Function supports interworking.
  18              		@ args = 0, pretend = 0, frame = 0
  19              		@ frame_needed = 0, uses_anonymous_args = 0
  20              		@ link register save eliminated.
  21              	.LVL0:
  18:led.c         **** 	unsigned int i;
  19:led.c         **** 	for(i=0;i<del_time;i++);	   
  22              		.loc 1 19 0
  23 0000 000050E3 		cmp	r0, #0
  24              		.loc 1 17 0
  25              		@ lr needed for prologue
  26              		.loc 1 19 0
  27 0004 1EFF2F01 		bxeq	lr
  28 0008 0030A0E3 		mov	r3, #0
  29              	.LVL1:
  30              	.L4:
  31 000c 013083E2 		add	r3, r3, #1
  32 0010 030050E1 		cmp	r0, r3
  33 0014 0100001A 		bne	.L4
  34 0018 1EFF2FE1 		bx	lr
ARM GAS  /cygdrive/c/DOCUME~1/ADMINI~1/USTAWI~1/Temp/ccqQPE7T.s 			page 2


  35              	.LFE2:
  36              		.size	delay, .-delay
  37              		.align	2
  38              		.global	Beep
  39              		.type	Beep, %function
  40              	Beep:
  41              	.LFB3:
  20:led.c         **** }								    							    
  21:led.c         **** 
  22:led.c         **** //*******************************
  23:led.c         **** // Beep cca. 1kHz
  24:led.c         **** // msDuration - duration [miliseconds]
  25:led.c         **** //*******************************
  26:led.c         **** void Beep(unsigned int msDuration)
  27:led.c         **** {
  42              		.loc 1 27 0
  43              		@ Function supports interworking.
  44              		@ args = 0, pretend = 0, frame = 0
  45              		@ frame_needed = 1, uses_anonymous_args = 0
  46              	.LVL2:
  47 001c 0DC0A0E1 		mov	ip, sp
  48              	.LCFI0:
  49 0020 F0D92DE9 		stmfd	sp!, {r4, r5, r6, r7, r8, fp, ip, lr, pc}
  50              	.LCFI1:
  28:led.c         **** 	unsigned int i;
  29:led.c         **** 	for(i=0;i<msDuration;i++)
  51              		.loc 1 29 0
  52 0024 008050E2 		subs	r8, r0, #0
  53              		.loc 1 27 0
  54 0028 04B04CE2 		sub	fp, ip, #4
  55              	.LCFI2:
  56              		.loc 1 29 0
  57 002c 0D00001A 		bne	.L14
  58              	.LVL3:
  59              	.L12:
  30:led.c         **** 	{
  31:led.c         **** 		IOSET0=0x04000000;
  32:led.c         **** 		delay(0xAAA);
  33:led.c         **** 		IOCLR0=0x04000000;
  34:led.c         **** 		delay(0xAAA);
  35:led.c         **** 	}
  36:led.c         **** }
  60              		.loc 1 36 0
  61 0030 20D04BE2 		sub	sp, fp, #32
  62 0034 F0699DE8 		ldmfd	sp, {r4, r5, r6, r7, r8, fp, sp, lr}
  63 0038 1EFF2FE1 		bx	lr
  64              	.LVL4:
  65              	.L14:
  66 003c 4E72A0E3 		mov	r7, #-536870908
  67 0040 CE62A0E3 		mov	r6, #-536870900
  68 0044 0A7987E2 		add	r7, r7, #163840
  69 0048 0A6986E2 		add	r6, r6, #163840
  70              		.loc 1 29 0
  71 004c 0040A0E3 		mov	r4, #0
  72              	.LVL5:
  73 0050 0153A0E3 		mov	r5, #67108864
  74              	.L11:
ARM GAS  /cygdrive/c/DOCUME~1/ADMINI~1/USTAWI~1/Temp/ccqQPE7T.s 			page 3


  75              		.loc 1 32 0
  76 0054 AA0EA0E3 		mov	r0, #2720
  77 0058 0A0080E2 		add	r0, r0, #10
  78              		.loc 1 31 0
  79 005c 005087E5 		str	r5, [r7, #0]
  80              		.loc 1 32 0
  81 0060 FEFFFFEB 		bl	delay
  82              		.loc 1 34 0
  83 0064 AA0EA0E3 		mov	r0, #2720
  84              		.loc 1 33 0
  85 0068 005086E5 		str	r5, [r6, #0]
  86              		.loc 1 34 0
  87 006c 0A0080E2 		add	r0, r0, #10
  88              		.loc 1 29 0
  89 0070 014084E2 		add	r4, r4, #1
  90              		.loc 1 34 0
  91 0074 FEFFFFEB 		bl	delay
  92              		.loc 1 29 0
  93 0078 040058E1 		cmp	r8, r4
  94 007c 1300001A 		bne	.L11
  95 0080 0A0000EA 		b	.L12
  96              	.LFE3:
  97              		.size	Beep, .-Beep
  98              		.align	2
  99              		.global	main
 100              		.type	main, %function
 101              	main:
 102              	.LFB4:
  37:led.c         **** 
  38:led.c         **** //*******************************
  39:led.c         **** // MAIN
  40:led.c         **** //*******************************
  41:led.c         **** int main (void)
  42:led.c         **** {
 103              		.loc 1 42 0
 104              		@ Function supports interworking.
 105              		@ args = 0, pretend = 0, frame = 0
 106              		@ frame_needed = 1, uses_anonymous_args = 0
 107 0084 0DC0A0E1 		mov	ip, sp
 108              	.LCFI3:
 109 0088 F0D82DE9 		stmfd	sp!, {r4, r5, r6, r7, fp, ip, lr, pc}
 110              	.LCFI4:
  43:led.c         **** 	//counter
  44:led.c         **** 	unsigned int i;
  45:led.c         **** 
  46:led.c         **** 	//Peripherials' frequency = fclk = 60MHz
  47:led.c         **** 	VPBDIV&=0xFFFFFFFC;
 111              		.loc 1 47 0
 112 008c 0E22A0E3 		mov	r2, #-536870912
 113 0090 7F2982E2 		add	r2, r2, #2080768
 114 0094 0031D2E5 		ldrb	r3, [r2, #256]	@ zero_extendqisi2
 115 0098 FC3003E2 		and	r3, r3, #252
 116 009c 0031C2E5 		strb	r3, [r2, #256]
  48:led.c         **** 	VPBDIV|=0x01;
 117              		.loc 1 48 0
 118 00a0 0011D2E5 		ldrb	r1, [r2, #256]	@ zero_extendqisi2
  49:led.c         **** 
ARM GAS  /cygdrive/c/DOCUME~1/ADMINI~1/USTAWI~1/Temp/ccqQPE7T.s 			page 4


  50:led.c         **** 	//Port direction configuration
  51:led.c         **** 	IODIR0 = 0xFF000000; 
 119              		.loc 1 51 0
 120 00a4 8E02A0E3 		mov	r0, #-536870904
  52:led.c         **** 	IODIR1 = 0x00FF0000;
 121              		.loc 1 52 0
 122 00a8 0E42A0E3 		mov	r4, #-536870912
 123 00ac 0A4984E2 		add	r4, r4, #163840
 124 00b0 FF58A0E3 		mov	r5, #16711680
 125              		.loc 1 48 0
 126 00b4 011081E3 		orr	r1, r1, #1
 127              		.loc 1 51 0
 128 00b8 0A0980E2 		add	r0, r0, #163840
 129 00bc FF34A0E3 		mov	r3, #-16777216
 130              		.loc 1 48 0
 131 00c0 0011C2E5 		strb	r1, [r2, #256]
 132              		.loc 1 42 0
 133 00c4 04B04CE2 		sub	fp, ip, #4
 134              	.LCFI5:
 135              		.loc 1 51 0
 136 00c8 003080E5 		str	r3, [r0, #0]
 137              		.loc 1 52 0
 138 00cc 185084E5 		str	r5, [r4, #24]
  53:led.c         **** 
  54:led.c         **** 	IOCLR1=0x00FF0000;
  55:led.c         **** 	delay(0x400000);
 139              		.loc 1 55 0
 140 00d0 0105A0E3 		mov	r0, #4194304
 141              		.loc 1 54 0
 142 00d4 1C5084E5 		str	r5, [r4, #28]
 143              		.loc 1 55 0
 144 00d8 FEFFFFEB 		bl	delay
 145 00dc 0470A0E1 		mov	r7, r4
 146 00e0 0560A0E1 		mov	r6, r5
 147 00e4 0040A0E3 		mov	r4, #0
 148              	.LVL6:
 149              	.L28:
  56:led.c         **** 	while(1)
  57:led.c         **** 	{
  58:led.c         **** 		for(i=0;i<3;i++)
  59:led.c         **** 		{
  60:led.c         **** 			IOSET1=0x00FF0000;
  61:led.c         **** 			delay(0x400000);
 150              		.loc 1 61 0
 151 00e8 0105A0E3 		mov	r0, #4194304
 152              		.loc 1 60 0
 153 00ec 146087E5 		str	r6, [r7, #20]
 154              		.loc 1 61 0
 155 00f0 FEFFFFEB 		bl	delay
 156              		.loc 1 58 0
 157 00f4 014084E2 		add	r4, r4, #1
  62:led.c         **** 
  63:led.c         **** 			IOCLR1=0x00FF0000;
  64:led.c         **** 			delay(0x400000);
 158              		.loc 1 64 0
 159 00f8 0105A0E3 		mov	r0, #4194304
 160              		.loc 1 63 0
ARM GAS  /cygdrive/c/DOCUME~1/ADMINI~1/USTAWI~1/Temp/ccqQPE7T.s 			page 5


 161 00fc 1C6087E5 		str	r6, [r7, #28]
 162              		.loc 1 64 0
 163 0100 FEFFFFEB 		bl	delay
 164              		.loc 1 58 0
 165 0104 020054E3 		cmp	r4, #2
 166 0108 3800009A 		bls	.L28
 167 010c 0E42A0E3 		mov	r4, #-536870912
 168              	.LVL7:
 169 0110 0A4984E2 		add	r4, r4, #163840
 170 0114 0350A0E3 		mov	r5, #3
 171              	.L18:
  65:led.c         **** 		}
  66:led.c         **** 		for(i=0;i<3;i++)
  67:led.c         **** 		{
  68:led.c         **** 			IOPIN1=0x00AA0000;
 172              		.loc 1 68 0
 173 0118 AA38A0E3 		mov	r3, #11141120
 174 011c 103084E5 		str	r3, [r4, #16]
  69:led.c         **** 			delay(0x400000);
 175              		.loc 1 69 0
 176 0120 0105A0E3 		mov	r0, #4194304
 177 0124 FEFFFFEB 		bl	delay
  70:led.c         **** 
  71:led.c         **** 			IOPIN1=0x00550000;
 178              		.loc 1 71 0
 179 0128 5538A0E3 		mov	r3, #5570560
 180 012c 103084E5 		str	r3, [r4, #16]
  72:led.c         **** 			delay(0x400000);
 181              		.loc 1 72 0
 182 0130 0105A0E3 		mov	r0, #4194304
 183 0134 FEFFFFEB 		bl	delay
 184              		.loc 1 66 0
 185 0138 015055E2 		subs	r5, r5, #1
 186 013c 4400001A 		bne	.L18
  73:led.c         **** 		}
  74:led.c         **** 		IOCLR1=0x00FF0000;
 187              		.loc 1 74 0
 188 0140 1C6084E5 		str	r6, [r4, #28]
  75:led.c         **** 		delay(0x400000);
 189              		.loc 1 75 0
 190 0144 0105A0E3 		mov	r0, #4194304
 191 0148 FEFFFFEB 		bl	delay
  76:led.c         **** 
  77:led.c         **** 		//Make some noise & blinking light
  78:led.c         **** 		IOPIN1=0x00180000;
 192              		.loc 1 78 0
 193 014c 0637A0E3 		mov	r3, #1572864
 194 0150 103084E5 		str	r3, [r4, #16]
  79:led.c         **** 		Beep(1000);
 195              		.loc 1 79 0
 196 0154 FA0FA0E3 		mov	r0, #1000
 197 0158 FEFFFFEB 		bl	Beep
  80:led.c         **** 		IOCLR1=0x00FF0000;
 198              		.loc 1 80 0
 199 015c 1C6084E5 		str	r6, [r4, #28]
  81:led.c         **** 		delay(0x100000);
 200              		.loc 1 81 0
ARM GAS  /cygdrive/c/DOCUME~1/ADMINI~1/USTAWI~1/Temp/ccqQPE7T.s 			page 6


 201 0160 0106A0E3 		mov	r0, #1048576
 202 0164 FEFFFFEB 		bl	delay
  82:led.c         **** 
  83:led.c         **** 		IOPIN1=0x003C0000;
 203              		.loc 1 83 0
 204 0168 0F37A0E3 		mov	r3, #3932160
 205 016c 103084E5 		str	r3, [r4, #16]
  84:led.c         **** 		Beep(300);
 206              		.loc 1 84 0
 207 0170 4B0FA0E3 		mov	r0, #300
 208 0174 FEFFFFEB 		bl	Beep
  85:led.c         **** 		IOCLR1=0x00FF0000;
 209              		.loc 1 85 0
 210 0178 1C6084E5 		str	r6, [r4, #28]
  86:led.c         **** 		delay(0x100000);
 211              		.loc 1 86 0
 212 017c 0106A0E3 		mov	r0, #1048576
 213 0180 FEFFFFEB 		bl	delay
  87:led.c         **** 
  88:led.c         **** 		IOPIN1=0x007E0000;
 214              		.loc 1 88 0
 215 0184 7E38A0E3 		mov	r3, #8257536
 216 0188 103084E5 		str	r3, [r4, #16]
  89:led.c         **** 		Beep(300);
 217              		.loc 1 89 0
 218 018c 4B0FA0E3 		mov	r0, #300
 219 0190 FEFFFFEB 		bl	Beep
  90:led.c         **** 		IOCLR1=0x00FF0000;
 220              		.loc 1 90 0
 221 0194 1C6084E5 		str	r6, [r4, #28]
  91:led.c         **** 		delay(0x200000);
 222              		.loc 1 91 0
 223 0198 0206A0E3 		mov	r0, #2097152
 224 019c FEFFFFEB 		bl	delay
 225 01a0 0540A0E1 		mov	r4, r5
 226              	.LVL8:
 227 01a4 380000EA 		b	.L28
 228              	.LFE4:
 229              		.size	main, .-main
 230              		.section	.debug_frame,"",%progbits
 231              	.Lframe0:
 232 0000 0C000000 		.4byte	.LECIE0-.LSCIE0
 233              	.LSCIE0:
 234 0004 FFFFFFFF 		.4byte	0xffffffff
 235 0008 01       		.byte	0x1
 236 0009 00       		.ascii	"\000"
 237 000a 01       		.uleb128 0x1
 238 000b 7C       		.sleb128 -4
 239 000c 0E       		.byte	0xe
 240 000d 0C       		.byte	0xc
 241 000e 0D       		.uleb128 0xd
 242 000f 00       		.uleb128 0x0
 243              		.align	2
 244              	.LECIE0:
 245              	.LSFDE0:
 246 0010 0C000000 		.4byte	.LEFDE0-.LASFDE0
 247              	.LASFDE0:
ARM GAS  /cygdrive/c/DOCUME~1/ADMINI~1/USTAWI~1/Temp/ccqQPE7T.s 			page 7


 248 0014 00000000 		.4byte	.Lframe0
 249 0018 00000000 		.4byte	.LFB2
 250 001c 1C000000 		.4byte	.LFE2-.LFB2
 251              		.align	2
 252              	.LEFDE0:
 253              	.LSFDE2:
 254 0020 24000000 		.4byte	.LEFDE2-.LASFDE2
 255              	.LASFDE2:
 256 0024 00000000 		.4byte	.Lframe0
 257 0028 1C000000 		.4byte	.LFB3
 258 002c 68000000 		.4byte	.LFE3-.LFB3
 259 0030 44       		.byte	0x4
 260              		.4byte	.LCFI0-.LFB3
 261 0031 0D       		.byte	0xd
 262 0032 0C       		.uleb128 0xc
 263 0033 44       		.byte	0x4
 264              		.4byte	.LCFI1-.LCFI0
 265 0034 8E       		.byte	0x8e
 266 0035 02       		.uleb128 0x2
 267 0036 8D       		.byte	0x8d
 268 0037 03       		.uleb128 0x3
 269 0038 8B       		.byte	0x8b
 270 0039 04       		.uleb128 0x4
 271 003a 88       		.byte	0x88
 272 003b 05       		.uleb128 0x5
 273 003c 87       		.byte	0x87
 274 003d 06       		.uleb128 0x6
 275 003e 86       		.byte	0x86
 276 003f 07       		.uleb128 0x7
 277 0040 85       		.byte	0x85
 278 0041 08       		.uleb128 0x8
 279 0042 84       		.byte	0x84
 280 0043 09       		.uleb128 0x9
 281 0044 48       		.byte	0x4
 282              		.4byte	.LCFI2-.LCFI1
 283 0045 0C       		.byte	0xc
 284 0046 0B       		.uleb128 0xb
 285 0047 04       		.uleb128 0x4
 286              		.align	2
 287              	.LEFDE2:
 288              	.LSFDE4:
 289 0048 24000000 		.4byte	.LEFDE4-.LASFDE4
 290              	.LASFDE4:
 291 004c 00000000 		.4byte	.Lframe0
 292 0050 84000000 		.4byte	.LFB4
 293 0054 24010000 		.4byte	.LFE4-.LFB4
 294 0058 44       		.byte	0x4
 295              		.4byte	.LCFI3-.LFB4
 296 0059 0D       		.byte	0xd
 297 005a 0C       		.uleb128 0xc
 298 005b 44       		.byte	0x4
 299              		.4byte	.LCFI4-.LCFI3
 300 005c 8E       		.byte	0x8e
 301 005d 02       		.uleb128 0x2
 302 005e 8D       		.byte	0x8d
 303 005f 03       		.uleb128 0x3
 304 0060 8B       		.byte	0x8b
ARM GAS  /cygdrive/c/DOCUME~1/ADMINI~1/USTAWI~1/Temp/ccqQPE7T.s 			page 8


 305 0061 04       		.uleb128 0x4
 306 0062 87       		.byte	0x87
 307 0063 05       		.uleb128 0x5
 308 0064 86       		.byte	0x86
 309 0065 06       		.uleb128 0x6
 310 0066 85       		.byte	0x85
 311 0067 07       		.uleb128 0x7
 312 0068 84       		.byte	0x84
 313 0069 08       		.uleb128 0x8
 314 006a 7C       		.byte	0x4
 315              		.4byte	.LCFI5-.LCFI4
 316 006b 0C       		.byte	0xc
 317 006c 0B       		.uleb128 0xb
 318 006d 04       		.uleb128 0x4
 319 006e 0000     		.align	2
 320              	.LEFDE4:
 321              		.text
 322              	.Letext0:
 323              		.section	.debug_loc,"",%progbits
 324              	.Ldebug_loc0:
 325              	.LLST0:
 326 0000 1C000000 		.4byte	.LVL2-.Ltext0
 327 0004 30000000 		.4byte	.LVL3-.Ltext0
 328 0008 0100     		.2byte	0x1
 329 000a 50       		.byte	0x50
 330 000b 30000000 		.4byte	.LVL3-.Ltext0
 331 000f 84000000 		.4byte	.LFE3-.Ltext0
 332 0013 0100     		.2byte	0x1
 333 0015 58       		.byte	0x58
 334 0016 00000000 		.4byte	0x0
 335 001a 00000000 		.4byte	0x0
 336              	.LLST1:
 337 001e 30000000 		.4byte	.LVL3-.Ltext0
 338 0022 3C000000 		.4byte	.LVL4-.Ltext0
 339 0026 0100     		.2byte	0x1
 340 0028 54       		.byte	0x54
 341 0029 50000000 		.4byte	.LVL5-.Ltext0
 342 002d 84000000 		.4byte	.LFE3-.Ltext0
 343 0031 0100     		.2byte	0x1
 344 0033 54       		.byte	0x54
 345 0034 00000000 		.4byte	0x0
 346 0038 00000000 		.4byte	0x0
 347              	.LLST2:
 348 003c E8000000 		.4byte	.LVL6-.Ltext0
 349 0040 10010000 		.4byte	.LVL7-.Ltext0
 350 0044 0100     		.2byte	0x1
 351 0046 54       		.byte	0x54
 352 0047 A4010000 		.4byte	.LVL8-.Ltext0
 353 004b A8010000 		.4byte	.LFE4-.Ltext0
 354 004f 0100     		.2byte	0x1
 355 0051 54       		.byte	0x54
 356 0052 00000000 		.4byte	0x0
 357 0056 00000000 		.4byte	0x0
 358              		.section	.debug_info
 359 0000 BE000000 		.4byte	0xbe
 360 0004 0200     		.2byte	0x2
 361 0006 00000000 		.4byte	.Ldebug_abbrev0
ARM GAS  /cygdrive/c/DOCUME~1/ADMINI~1/USTAWI~1/Temp/ccqQPE7T.s 			page 9


 362 000a 04       		.byte	0x4
 363 000b 01       		.uleb128 0x1
 364 000c 00000000 		.4byte	.Ldebug_line0
 365 0010 A8010000 		.4byte	.Letext0
 366 0014 00000000 		.4byte	.Ltext0
 367 0018 22000000 		.4byte	.LASF6
 368 001c 01       		.byte	0x1
 369 001d 16000000 		.4byte	.LASF7
 370 0021 33000000 		.4byte	.LASF8
 371 0025 02       		.uleb128 0x2
 372 0026 56000000 		.4byte	0x56
 373 002a 01       		.byte	0x1
 374 002b 1C000000 		.4byte	.LASF0
 375 002f 01       		.byte	0x1
 376 0030 11       		.byte	0x11
 377 0031 01       		.byte	0x1
 378 0032 00000000 		.4byte	.LFB2
 379 0036 1C000000 		.4byte	.LFE2
 380 003a 02       		.byte	0x2
 381 003b 7D       		.byte	0x7d
 382 003c 00       		.sleb128 0
 383 003d 03       		.uleb128 0x3
 384 003e 0D000000 		.4byte	.LASF2
 385 0042 01       		.byte	0x1
 386 0043 10       		.byte	0x10
 387 0044 56000000 		.4byte	0x56
 388 0048 01       		.byte	0x1
 389 0049 50       		.byte	0x50
 390 004a 04       		.uleb128 0x4
 391 004b 6900     		.ascii	"i\000"
 392 004d 01       		.byte	0x1
 393 004e 12       		.byte	0x12
 394 004f 56000000 		.4byte	0x56
 395 0053 01       		.byte	0x1
 396 0054 53       		.byte	0x53
 397 0055 00       		.byte	0x0
 398 0056 05       		.uleb128 0x5
 399 0057 00000000 		.4byte	.LASF5
 400 005b 04       		.byte	0x4
 401 005c 07       		.byte	0x7
 402 005d 02       		.uleb128 0x2
 403 005e 91000000 		.4byte	0x91
 404 0062 01       		.byte	0x1
 405 0063 9D000000 		.4byte	.LASF1
 406 0067 01       		.byte	0x1
 407 0068 1B       		.byte	0x1b
 408 0069 01       		.byte	0x1
 409 006a 1C000000 		.4byte	.LFB3
 410 006e 84000000 		.4byte	.LFE3
 411 0072 01       		.byte	0x1
 412 0073 5B       		.byte	0x5b
 413 0074 06       		.uleb128 0x6
 414 0075 92000000 		.4byte	.LASF3
 415 0079 01       		.byte	0x1
 416 007a 1A       		.byte	0x1a
 417 007b 56000000 		.4byte	0x56
 418 007f 00000000 		.4byte	.LLST0
ARM GAS  /cygdrive/c/DOCUME~1/ADMINI~1/USTAWI~1/Temp/ccqQPE7T.s 			page 10


 419 0083 07       		.uleb128 0x7
 420 0084 6900     		.ascii	"i\000"
 421 0086 01       		.byte	0x1
 422 0087 1C       		.byte	0x1c
 423 0088 56000000 		.4byte	0x56
 424 008c 1E000000 		.4byte	.LLST1
 425 0090 00       		.byte	0x0
 426 0091 08       		.uleb128 0x8
 427 0092 BA000000 		.4byte	0xba
 428 0096 01       		.byte	0x1
 429 0097 2E000000 		.4byte	.LASF4
 430 009b 01       		.byte	0x1
 431 009c 2A       		.byte	0x2a
 432 009d 01       		.byte	0x1
 433 009e BA000000 		.4byte	0xba
 434 00a2 84000000 		.4byte	.LFB4
 435 00a6 A8010000 		.4byte	.LFE4
 436 00aa 01       		.byte	0x1
 437 00ab 5B       		.byte	0x5b
 438 00ac 07       		.uleb128 0x7
 439 00ad 6900     		.ascii	"i\000"
 440 00af 01       		.byte	0x1
 441 00b0 2C       		.byte	0x2c
 442 00b1 56000000 		.4byte	0x56
 443 00b5 3C000000 		.4byte	.LLST2
 444 00b9 00       		.byte	0x0
 445 00ba 09       		.uleb128 0x9
 446 00bb 696E7400 		.ascii	"int\000"
 447 00bf 04       		.byte	0x4
 448 00c0 05       		.byte	0x5
 449 00c1 00       		.byte	0x0
 450              		.section	.debug_abbrev
 451 0000 01       		.uleb128 0x1
 452 0001 11       		.uleb128 0x11
 453 0002 01       		.byte	0x1
 454 0003 10       		.uleb128 0x10
 455 0004 06       		.uleb128 0x6
 456 0005 12       		.uleb128 0x12
 457 0006 01       		.uleb128 0x1
 458 0007 11       		.uleb128 0x11
 459 0008 01       		.uleb128 0x1
 460 0009 25       		.uleb128 0x25
 461 000a 0E       		.uleb128 0xe
 462 000b 13       		.uleb128 0x13
 463 000c 0B       		.uleb128 0xb
 464 000d 03       		.uleb128 0x3
 465 000e 0E       		.uleb128 0xe
 466 000f 1B       		.uleb128 0x1b
 467 0010 0E       		.uleb128 0xe
 468 0011 00       		.byte	0x0
 469 0012 00       		.byte	0x0
 470 0013 02       		.uleb128 0x2
 471 0014 2E       		.uleb128 0x2e
 472 0015 01       		.byte	0x1
 473 0016 01       		.uleb128 0x1
 474 0017 13       		.uleb128 0x13
 475 0018 3F       		.uleb128 0x3f
ARM GAS  /cygdrive/c/DOCUME~1/ADMINI~1/USTAWI~1/Temp/ccqQPE7T.s 			page 11


 476 0019 0C       		.uleb128 0xc
 477 001a 03       		.uleb128 0x3
 478 001b 0E       		.uleb128 0xe
 479 001c 3A       		.uleb128 0x3a
 480 001d 0B       		.uleb128 0xb
 481 001e 3B       		.uleb128 0x3b
 482 001f 0B       		.uleb128 0xb
 483 0020 27       		.uleb128 0x27
 484 0021 0C       		.uleb128 0xc
 485 0022 11       		.uleb128 0x11
 486 0023 01       		.uleb128 0x1
 487 0024 12       		.uleb128 0x12
 488 0025 01       		.uleb128 0x1
 489 0026 40       		.uleb128 0x40
 490 0027 0A       		.uleb128 0xa
 491 0028 00       		.byte	0x0
 492 0029 00       		.byte	0x0
 493 002a 03       		.uleb128 0x3
 494 002b 05       		.uleb128 0x5
 495 002c 00       		.byte	0x0
 496 002d 03       		.uleb128 0x3
 497 002e 0E       		.uleb128 0xe
 498 002f 3A       		.uleb128 0x3a
 499 0030 0B       		.uleb128 0xb
 500 0031 3B       		.uleb128 0x3b
 501 0032 0B       		.uleb128 0xb
 502 0033 49       		.uleb128 0x49
 503 0034 13       		.uleb128 0x13
 504 0035 02       		.uleb128 0x2
 505 0036 0A       		.uleb128 0xa
 506 0037 00       		.byte	0x0
 507 0038 00       		.byte	0x0
 508 0039 04       		.uleb128 0x4
 509 003a 34       		.uleb128 0x34
 510 003b 00       		.byte	0x0
 511 003c 03       		.uleb128 0x3
 512 003d 08       		.uleb128 0x8
 513 003e 3A       		.uleb128 0x3a
 514 003f 0B       		.uleb128 0xb
 515 0040 3B       		.uleb128 0x3b
 516 0041 0B       		.uleb128 0xb
 517 0042 49       		.uleb128 0x49
 518 0043 13       		.uleb128 0x13
 519 0044 02       		.uleb128 0x2
 520 0045 0A       		.uleb128 0xa
 521 0046 00       		.byte	0x0
 522 0047 00       		.byte	0x0
 523 0048 05       		.uleb128 0x5
 524 0049 24       		.uleb128 0x24
 525 004a 00       		.byte	0x0
 526 004b 03       		.uleb128 0x3
 527 004c 0E       		.uleb128 0xe
 528 004d 0B       		.uleb128 0xb
 529 004e 0B       		.uleb128 0xb
 530 004f 3E       		.uleb128 0x3e
 531 0050 0B       		.uleb128 0xb
 532 0051 00       		.byte	0x0
ARM GAS  /cygdrive/c/DOCUME~1/ADMINI~1/USTAWI~1/Temp/ccqQPE7T.s 			page 12


 533 0052 00       		.byte	0x0
 534 0053 06       		.uleb128 0x6
 535 0054 05       		.uleb128 0x5
 536 0055 00       		.byte	0x0
 537 0056 03       		.uleb128 0x3
 538 0057 0E       		.uleb128 0xe
 539 0058 3A       		.uleb128 0x3a
 540 0059 0B       		.uleb128 0xb
 541 005a 3B       		.uleb128 0x3b
 542 005b 0B       		.uleb128 0xb
 543 005c 49       		.uleb128 0x49
 544 005d 13       		.uleb128 0x13
 545 005e 02       		.uleb128 0x2
 546 005f 06       		.uleb128 0x6
 547 0060 00       		.byte	0x0
 548 0061 00       		.byte	0x0
 549 0062 07       		.uleb128 0x7
 550 0063 34       		.uleb128 0x34
 551 0064 00       		.byte	0x0
 552 0065 03       		.uleb128 0x3
 553 0066 08       		.uleb128 0x8
 554 0067 3A       		.uleb128 0x3a
 555 0068 0B       		.uleb128 0xb
 556 0069 3B       		.uleb128 0x3b
 557 006a 0B       		.uleb128 0xb
 558 006b 49       		.uleb128 0x49
 559 006c 13       		.uleb128 0x13
 560 006d 02       		.uleb128 0x2
 561 006e 06       		.uleb128 0x6
 562 006f 00       		.byte	0x0
 563 0070 00       		.byte	0x0
 564 0071 08       		.uleb128 0x8
 565 0072 2E       		.uleb128 0x2e
 566 0073 01       		.byte	0x1
 567 0074 01       		.uleb128 0x1
 568 0075 13       		.uleb128 0x13
 569 0076 3F       		.uleb128 0x3f
 570 0077 0C       		.uleb128 0xc
 571 0078 03       		.uleb128 0x3
 572 0079 0E       		.uleb128 0xe
 573 007a 3A       		.uleb128 0x3a
 574 007b 0B       		.uleb128 0xb
 575 007c 3B       		.uleb128 0x3b
 576 007d 0B       		.uleb128 0xb
 577 007e 27       		.uleb128 0x27
 578 007f 0C       		.uleb128 0xc
 579 0080 49       		.uleb128 0x49
 580 0081 13       		.uleb128 0x13
 581 0082 11       		.uleb128 0x11
 582 0083 01       		.uleb128 0x1
 583 0084 12       		.uleb128 0x12
 584 0085 01       		.uleb128 0x1
 585 0086 40       		.uleb128 0x40
 586 0087 0A       		.uleb128 0xa
 587 0088 00       		.byte	0x0
 588 0089 00       		.byte	0x0
 589 008a 09       		.uleb128 0x9
ARM GAS  /cygdrive/c/DOCUME~1/ADMINI~1/USTAWI~1/Temp/ccqQPE7T.s 			page 13


 590 008b 24       		.uleb128 0x24
 591 008c 00       		.byte	0x0
 592 008d 03       		.uleb128 0x3
 593 008e 08       		.uleb128 0x8
 594 008f 0B       		.uleb128 0xb
 595 0090 0B       		.uleb128 0xb
 596 0091 3E       		.uleb128 0x3e
 597 0092 0B       		.uleb128 0xb
 598 0093 00       		.byte	0x0
 599 0094 00       		.byte	0x0
 600 0095 00       		.byte	0x0
 601              		.section	.debug_pubnames,"",%progbits
 602 0000 2A000000 		.4byte	0x2a
 603 0004 0200     		.2byte	0x2
 604 0006 00000000 		.4byte	.Ldebug_info0
 605 000a C2000000 		.4byte	0xc2
 606 000e 25000000 		.4byte	0x25
 607 0012 64656C61 		.ascii	"delay\000"
 607      7900
 608 0018 5D000000 		.4byte	0x5d
 609 001c 42656570 		.ascii	"Beep\000"
 609      00
 610 0021 91000000 		.4byte	0x91
 611 0025 6D61696E 		.ascii	"main\000"
 611      00
 612 002a 00000000 		.4byte	0x0
 613              		.section	.debug_aranges,"",%progbits
 614 0000 1C000000 		.4byte	0x1c
 615 0004 0200     		.2byte	0x2
 616 0006 00000000 		.4byte	.Ldebug_info0
 617 000a 04       		.byte	0x4
 618 000b 00       		.byte	0x0
 619 000c 0000     		.2byte	0x0
 620 000e 0000     		.2byte	0x0
 621 0010 00000000 		.4byte	.Ltext0
 622 0014 A8010000 		.4byte	.Letext0-.Ltext0
 623 0018 00000000 		.4byte	0x0
 624 001c 00000000 		.4byte	0x0
 625              		.section	.debug_str,"MS",%progbits,1
 626              	.LASF5:
 627 0000 756E7369 		.ascii	"unsigned int\000"
 627      676E6564 
 627      20696E74 
 627      00
 628              	.LASF2:
 629 000d 64656C5F 		.ascii	"del_time\000"
 629      74696D65 
 629      00
 630              	.LASF7:
 631 0016 6C65642E 		.ascii	"led.c\000"
 631      6300
 632              	.LASF0:
 633 001c 64656C61 		.ascii	"delay\000"
 633      7900
 634              	.LASF6:
 635 0022 474E5520 		.ascii	"GNU C 4.0.1\000"
 635      4320342E 
ARM GAS  /cygdrive/c/DOCUME~1/ADMINI~1/USTAWI~1/Temp/ccqQPE7T.s 			page 14


 635      302E3100 
 636              	.LASF4:
 637 002e 6D61696E 		.ascii	"main\000"
 637      00
 638              	.LASF8:
 639 0033 2F637967 		.ascii	"/cygdrive/d/Ksiazka_ARM/Przykladowe_aplikacje/Stero"
 639      64726976 
 639      652F642F 
 639      4B736961 
 639      7A6B615F 
 640 0066 77616E69 		.ascii	"wanie_diodami_LED/Sterowanie_diodami_LED_uP\000"
 640      655F6469 
 640      6F64616D 
 640      695F4C45 
 640      442F5374 
 641              	.LASF3:
 642 0092 6D734475 		.ascii	"msDuration\000"
 642      72617469 
 642      6F6E00
 643              	.LASF1:
 644 009d 42656570 		.ascii	"Beep\000"
 644      00
 645              		.ident	"GCC: (GNU) 4.0.1"
ARM GAS  /cygdrive/c/DOCUME~1/ADMINI~1/USTAWI~1/Temp/ccqQPE7T.s 			page 15


DEFINED SYMBOLS
                            *ABS*:00000000 led.c
/cygdrive/c/DOCUME~1/ADMINI~1/USTAWI~1/Temp/ccqQPE7T.s:13     .text:00000000 delay
/cygdrive/c/DOCUME~1/ADMINI~1/USTAWI~1/Temp/ccqQPE7T.s:23     .text:00000000 $a
/cygdrive/c/DOCUME~1/ADMINI~1/USTAWI~1/Temp/ccqQPE7T.s:40     .text:0000001c Beep
/cygdrive/c/DOCUME~1/ADMINI~1/USTAWI~1/Temp/ccqQPE7T.s:101    .text:00000084 main

NO UNDEFINED SYMBOLS
